
bin/hypervisor:     file format elf32-i386


Disassembly of section .init:

00200000 <_ZN4Acpi5setupEv>:
{
    write (RESET, reset_val);
}

void Acpi::setup()
{
  200000:	53                   	push   %ebx
  200001:	83 ec 0c             	sub    $0xc,%esp
    Acpi_rsdp::parse();
  200004:	e8 37 09 00 00       	call   200940 <_ZN9Acpi_rsdp5parseEv>

    if (xsdt)
  200009:	8b 1d 34 a3 01 c0    	mov    0xc001a334,%ebx
  20000f:	85 db                	test   %ebx,%ebx
  200011:	74 13                	je     200026 <_ZN4Acpi5setupEv+0x26>
        static_cast<Acpi_table_rsdt *>(Hpt::remap (Pd::kern.quota, xsdt))->parse (xsdt, sizeof (uint64));
  200013:	89 da                	mov    %ebx,%edx
  200015:	b8 50 b4 01 c0       	mov    $0xc001b450,%eax
  20001a:	e8 cf 5b e0 bf       	call   c0005bee <_ZN3Hpt5remapER5Quotam>
  20001f:	b9 08 00 00 00       	mov    $0x8,%ecx
  200024:	eb 1b                	jmp    200041 <_ZN4Acpi5setupEv+0x41>
    else if (rsdt)
  200026:	8b 1d 38 a3 01 c0    	mov    0xc001a338,%ebx
  20002c:	85 db                	test   %ebx,%ebx
  20002e:	74 18                	je     200048 <_ZN4Acpi5setupEv+0x48>
        static_cast<Acpi_table_rsdt *>(Hpt::remap (Pd::kern.quota, rsdt))->parse (rsdt, sizeof (uint32));
  200030:	89 da                	mov    %ebx,%edx
  200032:	b8 50 b4 01 c0       	mov    $0xc001b450,%eax
  200037:	e8 b2 5b e0 bf       	call   c0005bee <_ZN3Hpt5remapER5Quotam>
  20003c:	b9 04 00 00 00       	mov    $0x4,%ecx
  200041:	89 da                	mov    %ebx,%edx
  200043:	e8 68 09 00 00       	call   2009b0 <_ZNK15Acpi_table_rsdt5parseEmj>

    if (fadt)
  200048:	8b 15 48 a3 01 c0    	mov    0xc001a348,%edx
  20004e:	85 d2                	test   %edx,%edx
  200050:	74 0f                	je     200061 <_ZN4Acpi5setupEv+0x61>
        static_cast<Acpi_table_fadt *>(Hpt::remap (Pd::kern.quota, fadt))->parse();
  200052:	b8 50 b4 01 c0       	mov    $0xc001b450,%eax
  200057:	e8 92 5b e0 bf       	call   c0005bee <_ZN3Hpt5remapER5Quotam>
  20005c:	e8 b7 03 00 00       	call   200418 <_ZNK15Acpi_table_fadt5parseEv>
    if (hpet)
  200061:	8b 15 44 a3 01 c0    	mov    0xc001a344,%edx
  200067:	85 d2                	test   %edx,%edx
  200069:	74 0f                	je     20007a <_ZN4Acpi5setupEv+0x7a>
        static_cast<Acpi_table_hpet *>(Hpt::remap (Pd::kern.quota, hpet))->parse();
  20006b:	b8 50 b4 01 c0       	mov    $0xc001b450,%eax
  200070:	e8 79 5b e0 bf       	call   c0005bee <_ZN3Hpt5remapER5Quotam>
  200075:	e8 de 05 00 00       	call   200658 <_ZNK15Acpi_table_hpet5parseEv>
    if (madt)
  20007a:	8b 15 40 a3 01 c0    	mov    0xc001a340,%edx
  200080:	85 d2                	test   %edx,%edx
  200082:	74 0f                	je     200093 <_ZN4Acpi5setupEv+0x93>
        static_cast<Acpi_table_madt *>(Hpt::remap (Pd::kern.quota, madt))->parse();
  200084:	b8 50 b4 01 c0       	mov    $0xc001b450,%eax
  200089:	e8 60 5b e0 bf       	call   c0005bee <_ZN3Hpt5remapER5Quotam>
  20008e:	e8 e3 07 00 00       	call   200876 <_ZNK15Acpi_table_madt5parseEv>
    if (mcfg)
  200093:	8b 15 3c a3 01 c0    	mov    0xc001a33c,%edx
  200099:	85 d2                	test   %edx,%edx
  20009b:	74 0f                	je     2000ac <_ZN4Acpi5setupEv+0xac>
        static_cast<Acpi_table_mcfg *>(Hpt::remap (Pd::kern.quota, mcfg))->parse();
  20009d:	b8 50 b4 01 c0       	mov    $0xc001b450,%eax
  2000a2:	e8 47 5b e0 bf       	call   c0005bee <_ZN3Hpt5remapER5Quotam>
  2000a7:	e8 18 08 00 00       	call   2008c4 <_ZNK15Acpi_table_mcfg5parseEv>
    if (dmar)
  2000ac:	8b 15 4c a3 01 c0    	mov    0xc001a34c,%edx
  2000b2:	85 d2                	test   %edx,%edx
  2000b4:	74 0f                	je     2000c5 <_ZN4Acpi5setupEv+0xc5>
        static_cast<Acpi_table_dmar *>(Hpt::remap (Pd::kern.quota, dmar))->parse();
  2000b6:	b8 50 b4 01 c0       	mov    $0xc001b450,%eax
  2000bb:	e8 2e 5b e0 bf       	call   c0005bee <_ZN3Hpt5remapER5Quotam>
  2000c0:	e8 d3 02 00 00       	call   200398 <_ZNK15Acpi_table_dmar5parseEv>

    if (!Acpi_table_madt::sci_overridden) {
  2000c5:	80 3d 80 a2 01 c0 00 	cmpb   $0x0,0xc001a280
  2000cc:	75 20                	jne    2000ee <_ZN4Acpi5setupEv+0xee>
        Acpi_intr sci_override;
        sci_override.bus = 0;
        sci_override.irq = static_cast<uint8>(irq);
  2000ce:	a1 88 a2 01 c0       	mov    0xc001a288,%eax
    if (dmar)
        static_cast<Acpi_table_dmar *>(Hpt::remap (Pd::kern.quota, dmar))->parse();

    if (!Acpi_table_madt::sci_overridden) {
        Acpi_intr sci_override;
        sci_override.bus = 0;
  2000d3:	c6 44 24 04 00       	movb   $0x0,0x4(%esp)
        sci_override.irq = static_cast<uint8>(irq);
        sci_override.gsi = irq;
        sci_override.flags.pol = Acpi_inti::POL_CONFORMING;
        sci_override.flags.trg = Acpi_inti::TRG_CONFORMING;
  2000d8:	80 64 24 0a f0       	andb   $0xf0,0xa(%esp)
        static_cast<Acpi_table_dmar *>(Hpt::remap (Pd::kern.quota, dmar))->parse();

    if (!Acpi_table_madt::sci_overridden) {
        Acpi_intr sci_override;
        sci_override.bus = 0;
        sci_override.irq = static_cast<uint8>(irq);
  2000dd:	88 44 24 05          	mov    %al,0x5(%esp)
        sci_override.gsi = irq;
  2000e1:	89 44 24 06          	mov    %eax,0x6(%esp)
        sci_override.flags.pol = Acpi_inti::POL_CONFORMING;
        sci_override.flags.trg = Acpi_inti::TRG_CONFORMING;
        Acpi_table_madt::parse_intr (&sci_override);
  2000e5:	8d 44 24 02          	lea    0x2(%esp),%eax
  2000e9:	e8 b6 05 00 00       	call   2006a4 <_ZN15Acpi_table_madt10parse_intrEPK9Acpi_apic>
    }

    Gsi::set (gsi = Gsi::irq_to_gsi (irq));
  2000ee:	a1 88 a2 01 c0       	mov    0xc001a288,%eax
        static void unmask (unsigned);

        ALWAYS_INLINE
        static inline unsigned irq_to_gsi (unsigned irq)
        {
            assert (irq < NUM_IRQ);
  2000f3:	83 f8 0f             	cmp    $0xf,%eax
  2000f6:	76 1b                	jbe    200113 <_ZN4Acpi5setupEv+0x113>
  2000f8:	68 e0 60 01 c0       	push   $0xc00160e0
  2000fd:	6a 38                	push   $0x38
  2000ff:	68 eb 5f 01 c0       	push   $0xc0015feb
  200104:	68 5b 60 01 c0       	push   $0xc001605b
  200109:	68 69 60 01 c0       	push   $0xc0016069
  20010e:	e8 33 18 e0 bf       	call   c0001946 <_ZN7Console5panicEPKcz>
            return irq_table[irq];
  200113:	8b 04 85 a0 a4 01 c0 	mov    -0x3ffe5b60(,%eax,4),%eax
  20011a:	31 c9                	xor    %ecx,%ecx
  20011c:	31 d2                	xor    %edx,%edx
  20011e:	a3 84 a2 01 c0       	mov    %eax,0xc001a284
  200123:	e8 58 55 e0 bf       	call   c0005680 <_ZN3Gsi3setEjjj>

    write (PM1_ENA, PM1_ENA_TMR);
  200128:	ba 01 00 00 00       	mov    $0x1,%edx
  20012d:	b8 01 00 00 00       	mov    $0x1,%eax
  200132:	e8 2f 09 e0 bf       	call   c0000a66 <_ZN4Acpi5writeENS_8RegisterEj>

    clear (GPE0_ENA, 0);
  200137:	31 d2                	xor    %edx,%edx
  200139:	b8 05 00 00 00       	mov    $0x5,%eax
  20013e:	e8 f3 08 e0 bf       	call   c0000a36 <_ZN4Acpi5clearENS_8RegisterEj>
    clear (GPE1_ENA, 0);
  200143:	31 d2                	xor    %edx,%edx
  200145:	b8 07 00 00 00       	mov    $0x7,%eax
  20014a:	e8 e7 08 e0 bf       	call   c0000a36 <_ZN4Acpi5clearENS_8RegisterEj>

    for (; tmr_ovf = read (PM_TMR) >> tmr_msb(), read (PM1_STS) & PM1_STS_TMR; write (PM1_STS, PM1_STS_TMR)) ;
  20014f:	b8 08 00 00 00       	mov    $0x8,%eax
  200154:	e8 bd 07 e0 bf       	call   c0000916 <_ZN4Acpi4readENS_8RegisterE>
        static void hw_write (Acpi_gas *, unsigned, bool = false);
        static void write (Register, unsigned);
        static void clear (Register, unsigned);

        ALWAYS_INLINE
        static inline mword tmr_msb() { return feature & 0x100 ? 31 : 23; }
  200159:	8b 15 90 a2 01 c0    	mov    0xc001a290,%edx
  20015f:	81 e2 00 01 00 00    	and    $0x100,%edx
  200165:	83 fa 01             	cmp    $0x1,%edx
  200168:	19 c9                	sbb    %ecx,%ecx
  20016a:	83 e1 f8             	and    $0xfffffff8,%ecx
  20016d:	83 c1 1f             	add    $0x1f,%ecx
  200170:	d3 e8                	shr    %cl,%eax
  200172:	a3 94 a2 01 c0       	mov    %eax,0xc001a294
  200177:	31 c0                	xor    %eax,%eax
  200179:	e8 98 07 e0 bf       	call   c0000916 <_ZN4Acpi4readENS_8RegisterE>
  20017e:	a8 01                	test   $0x1,%al
  200180:	74 0e                	je     200190 <_ZN4Acpi5setupEv+0x190>
  200182:	ba 01 00 00 00       	mov    $0x1,%edx
  200187:	31 c0                	xor    %eax,%eax
  200189:	e8 d8 08 e0 bf       	call   c0000a66 <_ZN4Acpi5writeENS_8RegisterEj>
  20018e:	eb bf                	jmp    20014f <_ZN4Acpi5setupEv+0x14f>

    trace (TRACE_ACPI, "ACPI: GSI:%#x TMR:%lu", gsi, tmr_msb() + 1);
}
  200190:	83 c4 0c             	add    $0xc,%esp
  200193:	5b                   	pop    %ebx
  200194:	c3                   	ret    
  200195:	90                   	nop

00200196 <_ZNK9Acpi_dmar5parseEv>:
#include "ioapic.hpp"
#include "pci.hpp"
#include "pd.hpp"

void Acpi_dmar::parse() const
{
  200196:	55                   	push   %ebp
    public:
        INIT
        Dmar (Paddr);

        ALWAYS_INLINE
        static inline void *operator new (size_t, Quota &quota) { return cache.alloc(quota); }
  200197:	ba 50 b4 01 c0       	mov    $0xc001b450,%edx
  20019c:	57                   	push   %edi
  20019d:	89 c7                	mov    %eax,%edi
  20019f:	56                   	push   %esi
  2001a0:	b8 54 a4 01 c0       	mov    $0xc001a454,%eax
  2001a5:	53                   	push   %ebx
  2001a6:	83 ec 14             	sub    $0x14,%esp
  2001a9:	e8 c8 00 e1 bf       	call   c0010276 <_ZN10Slab_cache5allocER5Quota>
    Dmar *dmar = new (Pd::kern.quota) Dmar (static_cast<Paddr>(phys));
  2001ae:	8b 57 08             	mov    0x8(%edi),%edx
  2001b1:	89 c5                	mov    %eax,%ebp
  2001b3:	e8 82 0b 00 00       	call   200d3a <_ZN4DmarC1Em>
  2001b8:	a1 bc b0 01 c0       	mov    0xc001b0bc,%eax

    if (flags & 1)
  2001bd:	f6 47 04 01          	testb  $0x1,0x4(%edi)
  2001c1:	89 04 24             	mov    %eax,(%esp)
  2001c4:	75 17                	jne    2001dd <_ZNK9Acpi_dmar5parseEv+0x47>
        static inline void *operator new (size_t, Quota &quota) { return cache.alloc(quota); }

        ALWAYS_INLINE
        static inline bool claim_dev (unsigned r, unsigned i)
        {
            for (Ioapic *ioapic = list; ioapic; ioapic = ioapic->next)
  2001c6:	a1 58 b0 01 c0       	mov    0xc001b058,%eax
        Pci::claim_all (dmar);

    for (Acpi_scope const *s = scope; s < reinterpret_cast<Acpi_scope *>(reinterpret_cast<mword>(this) + length); s = reinterpret_cast<Acpi_scope *>(reinterpret_cast<mword>(s) + s->length)) {
  2001cb:	8d 57 10             	lea    0x10(%edi),%edx
  2001ce:	89 44 24 0c          	mov    %eax,0xc(%esp)
        static inline void *operator new (size_t, Quota &quota) { return cache.alloc(quota); }

        ALWAYS_INLINE
        static inline bool claim_dev (unsigned r, unsigned i)
        {
            for (Hpet *hpet = list; hpet; hpet = hpet->next)
  2001d2:	a1 e8 aa 01 c0       	mov    0xc001aae8,%eax
  2001d7:	89 44 24 10          	mov    %eax,0x10(%esp)
  2001db:	eb 43                	jmp    200220 <_ZNK9Acpi_dmar5parseEv+0x8a>
        static inline void *operator new (size_t, Quota &quota) { return cache.alloc(quota); }

        ALWAYS_INLINE
        static inline void claim_all (Dmar *d)
        {
            for (Pci *pci = list; pci; pci = pci->next)
  2001dd:	8b 04 24             	mov    (%esp),%eax
  2001e0:	85 c0                	test   %eax,%eax
  2001e2:	74 e2                	je     2001c6 <_ZNK9Acpi_dmar5parseEv+0x30>
                if (!pci->dmar)
  2001e4:	83 78 0c 00          	cmpl   $0x0,0xc(%eax)
  2001e8:	75 03                	jne    2001ed <_ZNK9Acpi_dmar5parseEv+0x57>
                    pci->dmar = d;
  2001ea:	89 68 0c             	mov    %ebp,0xc(%eax)
        static inline void *operator new (size_t, Quota &quota) { return cache.alloc(quota); }

        ALWAYS_INLINE
        static inline void claim_all (Dmar *d)
        {
            for (Pci *pci = list; pci; pci = pci->next)
  2001ed:	8b 00                	mov    (%eax),%eax
  2001ef:	eb ef                	jmp    2001e0 <_ZNK9Acpi_dmar5parseEv+0x4a>

        switch (s->type) {
  2001f1:	8a 02                	mov    (%edx),%al
  2001f3:	3c 03                	cmp    $0x3,%al
  2001f5:	74 7e                	je     200275 <_ZNK9Acpi_dmar5parseEv+0xdf>
  2001f7:	77 36                	ja     20022f <_ZNK9Acpi_dmar5parseEv+0x99>
  2001f9:	3c 01                	cmp    $0x1,%al
  2001fb:	72 1d                	jb     20021a <_ZNK9Acpi_dmar5parseEv+0x84>
        uint8       length;
        uint16      reserved;
        uint8       id, b, d, f;

        ALWAYS_INLINE
        inline unsigned rid() const { return b << 8 | d << 3 | f; }
  2001fd:	0f b6 4a 05          	movzbl 0x5(%edx),%ecx
  200201:	0f b6 42 06          	movzbl 0x6(%edx),%eax
  200205:	c1 e1 08             	shl    $0x8,%ecx
  200208:	c1 e0 03             	shl    $0x3,%eax
  20020b:	09 c1                	or     %eax,%ecx
  20020d:	0f b6 42 07          	movzbl 0x7(%edx),%eax
  200211:	09 c1                	or     %eax,%ecx
        inline void write (Register r, T v) { *reinterpret_cast<T volatile *>(reg_base + r) = v; }

        ALWAYS_INLINE
        static inline Pci *find_dev (unsigned long r)
        {
            for (Pci *pci = list; pci; pci = pci->next)
  200213:	8b 04 24             	mov    (%esp),%eax
  200216:	85 c0                	test   %eax,%eax
  200218:	75 36                	jne    200250 <_ZNK9Acpi_dmar5parseEv+0xba>
    Dmar *dmar = new (Pd::kern.quota) Dmar (static_cast<Paddr>(phys));

    if (flags & 1)
        Pci::claim_all (dmar);

    for (Acpi_scope const *s = scope; s < reinterpret_cast<Acpi_scope *>(reinterpret_cast<mword>(this) + length); s = reinterpret_cast<Acpi_scope *>(reinterpret_cast<mword>(s) + s->length)) {
  20021a:	0f b6 42 01          	movzbl 0x1(%edx),%eax
  20021e:	01 c2                	add    %eax,%edx
  200220:	0f b7 47 02          	movzwl 0x2(%edi),%eax
  200224:	01 f8                	add    %edi,%eax
  200226:	39 c2                	cmp    %eax,%edx
  200228:	72 c7                	jb     2001f1 <_ZNK9Acpi_dmar5parseEv+0x5b>
  20022a:	e9 bc 00 00 00       	jmp    2002eb <_ZNK9Acpi_dmar5parseEv+0x155>

        switch (s->type) {
  20022f:	3c 04                	cmp    $0x4,%al
  200231:	75 e7                	jne    20021a <_ZNK9Acpi_dmar5parseEv+0x84>
                break;
            case 3:
                Ioapic::claim_dev (s->rid(), s->id);
                break;
            case 4:
                Hpet::claim_dev (s->rid(), s->id);
  200233:	0f b6 42 04          	movzbl 0x4(%edx),%eax
  200237:	0f b6 4a 05          	movzbl 0x5(%edx),%ecx
  20023b:	0f b6 5a 06          	movzbl 0x6(%edx),%ebx
  20023f:	8b 74 24 10          	mov    0x10(%esp),%esi
  200243:	89 44 24 04          	mov    %eax,0x4(%esp)
  200247:	8a 42 07             	mov    0x7(%edx),%al
  20024a:	88 44 24 0b          	mov    %al,0xb(%esp)
  20024e:	eb 71                	jmp    2002c1 <_ZNK9Acpi_dmar5parseEv+0x12b>
                if (pci->rid == r)
  200250:	0f b7 58 08          	movzwl 0x8(%eax),%ebx
  200254:	39 cb                	cmp    %ecx,%ebx
  200256:	75 06                	jne    20025e <_ZNK9Acpi_dmar5parseEv+0xc8>
            Pci *pci = find_dev (r);

            if (!pci)
                return false;

            unsigned l = pci->lev;
  200258:	0f b7 48 0a          	movzwl 0xa(%eax),%ecx
  20025c:	eb 0c                	jmp    20026a <_ZNK9Acpi_dmar5parseEv+0xd4>
        inline void write (Register r, T v) { *reinterpret_cast<T volatile *>(reg_base + r) = v; }

        ALWAYS_INLINE
        static inline Pci *find_dev (unsigned long r)
        {
            for (Pci *pci = list; pci; pci = pci->next)
  20025e:	8b 00                	mov    (%eax),%eax
  200260:	eb b4                	jmp    200216 <_ZNK9Acpi_dmar5parseEv+0x80>

            if (!pci)
                return false;

            unsigned l = pci->lev;
            do pci->dmar = d; while ((pci = pci->next) && pci->lev > l);
  200262:	0f b7 58 0a          	movzwl 0xa(%eax),%ebx
  200266:	39 cb                	cmp    %ecx,%ebx
  200268:	76 b0                	jbe    20021a <_ZNK9Acpi_dmar5parseEv+0x84>
  20026a:	89 68 0c             	mov    %ebp,0xc(%eax)
  20026d:	8b 00                	mov    (%eax),%eax
  20026f:	85 c0                	test   %eax,%eax
  200271:	75 ef                	jne    200262 <_ZNK9Acpi_dmar5parseEv+0xcc>
  200273:	eb a5                	jmp    20021a <_ZNK9Acpi_dmar5parseEv+0x84>
  200275:	8a 42 07             	mov    0x7(%edx),%al
        switch (s->type) {
            case 1 ... 2:
                Pci::claim_dev (dmar, s->rid());
                break;
            case 3:
                Ioapic::claim_dev (s->rid(), s->id);
  200278:	0f b6 72 04          	movzbl 0x4(%edx),%esi
  20027c:	0f b6 4a 05          	movzbl 0x5(%edx),%ecx
  200280:	0f b6 5a 06          	movzbl 0x6(%edx),%ebx
  200284:	88 44 24 04          	mov    %al,0x4(%esp)
  200288:	8b 44 24 0c          	mov    0xc(%esp),%eax
  20028c:	85 c0                	test   %eax,%eax
  20028e:	74 8a                	je     20021a <_ZNK9Acpi_dmar5parseEv+0x84>
                if (ioapic->rid == 0 && ioapic->id == i) {
  200290:	66 83 78 10 00       	cmpw   $0x0,0x10(%eax)
  200295:	75 1d                	jne    2002b4 <_ZNK9Acpi_dmar5parseEv+0x11e>
  200297:	39 70 0c             	cmp    %esi,0xc(%eax)
  20029a:	75 18                	jne    2002b4 <_ZNK9Acpi_dmar5parseEv+0x11e>
  20029c:	c1 e1 08             	shl    $0x8,%ecx
  20029f:	c1 e3 03             	shl    $0x3,%ebx
  2002a2:	09 cb                	or     %ecx,%ebx
  2002a4:	0f b6 4c 24 04       	movzbl 0x4(%esp),%ecx
  2002a9:	09 cb                	or     %ecx,%ebx
                    ioapic->rid  = static_cast<uint16>(r);
  2002ab:	66 89 58 10          	mov    %bx,0x10(%eax)
  2002af:	e9 66 ff ff ff       	jmp    20021a <_ZNK9Acpi_dmar5parseEv+0x84>
        static inline void *operator new (size_t, Quota &quota) { return cache.alloc(quota); }

        ALWAYS_INLINE
        static inline bool claim_dev (unsigned r, unsigned i)
        {
            for (Ioapic *ioapic = list; ioapic; ioapic = ioapic->next)
  2002b4:	8b 00                	mov    (%eax),%eax
  2002b6:	eb d4                	jmp    20028c <_ZNK9Acpi_dmar5parseEv+0xf6>
                if (hpet->rid == 0 && hpet->id == i) {
  2002b8:	66 83 7e 0c 00       	cmpw   $0x0,0xc(%esi)
  2002bd:	74 0b                	je     2002ca <_ZNK9Acpi_dmar5parseEv+0x134>
        static inline void *operator new (size_t, Quota &quota) { return cache.alloc(quota); }

        ALWAYS_INLINE
        static inline bool claim_dev (unsigned r, unsigned i)
        {
            for (Hpet *hpet = list; hpet; hpet = hpet->next)
  2002bf:	8b 36                	mov    (%esi),%esi
  2002c1:	85 f6                	test   %esi,%esi
  2002c3:	75 f3                	jne    2002b8 <_ZNK9Acpi_dmar5parseEv+0x122>
  2002c5:	e9 50 ff ff ff       	jmp    20021a <_ZNK9Acpi_dmar5parseEv+0x84>
                if (hpet->rid == 0 && hpet->id == i) {
  2002ca:	8b 44 24 04          	mov    0x4(%esp),%eax
  2002ce:	39 46 08             	cmp    %eax,0x8(%esi)
  2002d1:	75 ec                	jne    2002bf <_ZNK9Acpi_dmar5parseEv+0x129>
  2002d3:	c1 e1 08             	shl    $0x8,%ecx
  2002d6:	c1 e3 03             	shl    $0x3,%ebx
  2002d9:	09 cb                	or     %ecx,%ebx
  2002db:	0f b6 4c 24 0b       	movzbl 0xb(%esp),%ecx
  2002e0:	09 cb                	or     %ecx,%ebx
                    hpet->rid = static_cast<uint16>(r);
  2002e2:	66 89 5e 0c          	mov    %bx,0xc(%esi)
  2002e6:	e9 2f ff ff ff       	jmp    20021a <_ZNK9Acpi_dmar5parseEv+0x84>
            case 4:
                Hpet::claim_dev (s->rid(), s->id);
                break;
        }
    }
}
  2002eb:	83 c4 14             	add    $0x14,%esp
  2002ee:	5b                   	pop    %ebx
  2002ef:	5e                   	pop    %esi
  2002f0:	5f                   	pop    %edi
  2002f1:	5d                   	pop    %ebp
  2002f2:	c3                   	ret    
  2002f3:	90                   	nop

002002f4 <_ZNK9Acpi_rmrr5parseEv>:

void Acpi_rmrr::parse() const
{
  2002f4:	55                   	push   %ebp
  2002f5:	89 c5                	mov    %eax,%ebp
  2002f7:	57                   	push   %edi
  2002f8:	56                   	push   %esi
  2002f9:	53                   	push   %ebx
    for (uint64 hpa = base & ~PAGE_MASK; hpa < limit; hpa += PAGE_SIZE)
  2002fa:	8b 40 08             	mov    0x8(%eax),%eax
  2002fd:	8b 7d 0c             	mov    0xc(%ebp),%edi
  200300:	25 00 f0 ff ff       	and    $0xfffff000,%eax
  200305:	89 c6                	mov    %eax,%esi
  200307:	3b 7d 14             	cmp    0x14(%ebp),%edi
  20030a:	73 27                	jae    200333 <_ZNK9Acpi_rmrr5parseEv+0x3f>
        Pd::kern.dpt.update (Pd::kern.quota, hpa, 0, hpa, Dpt::DPT_R | Dpt::DPT_W);
  20030c:	6a 00                	push   $0x0
  20030e:	ba 50 b4 01 c0       	mov    $0xc001b450,%edx
  200313:	6a 03                	push   $0x3
  200315:	b8 18 b4 01 c0       	mov    $0xc001b418,%eax
  20031a:	57                   	push   %edi
  20031b:	56                   	push   %esi
  20031c:	6a 00                	push   $0x0
  20031e:	57                   	push   %edi
  20031f:	56                   	push   %esi
  200320:	e8 55 d7 e0 bf       	call   c000da7a <_ZN3PteI3DptyLj4ELj9ELb1EE6updateER5QuotaymymNS1_4TypeE>
    }
}

void Acpi_rmrr::parse() const
{
    for (uint64 hpa = base & ~PAGE_MASK; hpa < limit; hpa += PAGE_SIZE)
  200325:	81 c6 00 10 00 00    	add    $0x1000,%esi
  20032b:	83 d7 00             	adc    $0x0,%edi
  20032e:	83 c4 1c             	add    $0x1c,%esp
  200331:	eb d4                	jmp    200307 <_ZNK9Acpi_rmrr5parseEv+0x13>
  200333:	77 05                	ja     20033a <_ZNK9Acpi_rmrr5parseEv+0x46>
  200335:	3b 75 10             	cmp    0x10(%ebp),%esi
  200338:	72 d2                	jb     20030c <_ZNK9Acpi_rmrr5parseEv+0x18>
        Pd::kern.dpt.update (Pd::kern.quota, hpa, 0, hpa, Dpt::DPT_R | Dpt::DPT_W);

    for (Acpi_scope const *s = scope; s < reinterpret_cast<Acpi_scope *>(reinterpret_cast<mword>(this) + length); s = reinterpret_cast<Acpi_scope *>(reinterpret_cast<mword>(s) + s->length)) {
  20033a:	8d 5d 18             	lea    0x18(%ebp),%ebx
  20033d:	0f b7 45 02          	movzwl 0x2(%ebp),%eax
  200341:	01 e8                	add    %ebp,%eax
  200343:	39 c3                	cmp    %eax,%ebx
  200345:	73 4b                	jae    200392 <_ZNK9Acpi_rmrr5parseEv+0x9e>

        Dmar *dmar = nullptr;

        switch (s->type) {
  200347:	80 3b 01             	cmpb   $0x1,(%ebx)
  20034a:	75 3e                	jne    20038a <_ZNK9Acpi_rmrr5parseEv+0x96>
  20034c:	0f b6 53 05          	movzbl 0x5(%ebx),%edx
  200350:	0f b6 43 06          	movzbl 0x6(%ebx),%eax
  200354:	c1 e2 08             	shl    $0x8,%edx
  200357:	c1 e0 03             	shl    $0x3,%eax
  20035a:	09 c2                	or     %eax,%edx
  20035c:	0f b6 43 07          	movzbl 0x7(%ebx),%eax
  200360:	09 c2                	or     %eax,%edx
        inline void write (Register r, T v) { *reinterpret_cast<T volatile *>(reg_base + r) = v; }

        ALWAYS_INLINE
        static inline Pci *find_dev (unsigned long r)
        {
            for (Pci *pci = list; pci; pci = pci->next)
  200362:	a1 bc b0 01 c0       	mov    0xc001b0bc,%eax
  200367:	85 c0                	test   %eax,%eax
  200369:	74 1f                	je     20038a <_ZNK9Acpi_rmrr5parseEv+0x96>
                if (pci->rid == r)
  20036b:	0f b7 48 08          	movzwl 0x8(%eax),%ecx
  20036f:	39 d1                	cmp    %edx,%ecx
  200371:	75 13                	jne    200386 <_ZNK9Acpi_rmrr5parseEv+0x92>
        ALWAYS_INLINE
        static inline Dmar *find_dmar (unsigned long r)
        {
            Pci *pci = find_dev (r);

            return pci ? pci->dmar : nullptr;
  200373:	8b 40 0c             	mov    0xc(%eax),%eax
            case 1:
                dmar = Pci::find_dmar (s->rid());
                break;
        }

        if (dmar)
  200376:	85 c0                	test   %eax,%eax
  200378:	74 10                	je     20038a <_ZNK9Acpi_rmrr5parseEv+0x96>
            dmar->assign (s->rid(), &Pd::kern);
  20037a:	b9 c0 b2 01 c0       	mov    $0xc001b2c0,%ecx
  20037f:	e8 b6 21 e0 bf       	call   c000253a <_ZN4Dmar6assignEmP2Pd>
  200384:	eb 04                	jmp    20038a <_ZNK9Acpi_rmrr5parseEv+0x96>
        inline void write (Register r, T v) { *reinterpret_cast<T volatile *>(reg_base + r) = v; }

        ALWAYS_INLINE
        static inline Pci *find_dev (unsigned long r)
        {
            for (Pci *pci = list; pci; pci = pci->next)
  200386:	8b 00                	mov    (%eax),%eax
  200388:	eb dd                	jmp    200367 <_ZNK9Acpi_rmrr5parseEv+0x73>
void Acpi_rmrr::parse() const
{
    for (uint64 hpa = base & ~PAGE_MASK; hpa < limit; hpa += PAGE_SIZE)
        Pd::kern.dpt.update (Pd::kern.quota, hpa, 0, hpa, Dpt::DPT_R | Dpt::DPT_W);

    for (Acpi_scope const *s = scope; s < reinterpret_cast<Acpi_scope *>(reinterpret_cast<mword>(this) + length); s = reinterpret_cast<Acpi_scope *>(reinterpret_cast<mword>(s) + s->length)) {
  20038a:	0f b6 43 01          	movzbl 0x1(%ebx),%eax
  20038e:	01 c3                	add    %eax,%ebx
  200390:	eb ab                	jmp    20033d <_ZNK9Acpi_rmrr5parseEv+0x49>
        }

        if (dmar)
            dmar->assign (s->rid(), &Pd::kern);
    }
}
  200392:	5b                   	pop    %ebx
  200393:	5e                   	pop    %esi
  200394:	5f                   	pop    %edi
  200395:	5d                   	pop    %ebp
  200396:	c3                   	ret    
  200397:	90                   	nop

00200398 <_ZNK15Acpi_table_dmar5parseEv>:

void Acpi_table_dmar::parse() const
{
    if (!Cmdline::iommu)
  200398:	80 3d 8c a3 01 c0 00 	cmpb   $0x0,0xc001a38c
  20039f:	74 75                	je     200416 <_ZNK15Acpi_table_dmar5parseEv+0x7e>
            dmar->assign (s->rid(), &Pd::kern);
    }
}

void Acpi_table_dmar::parse() const
{
  2003a1:	56                   	push   %esi
  2003a2:	89 c6                	mov    %eax,%esi
  2003a4:	53                   	push   %ebx
    if (!Cmdline::iommu)
        return;

    for (Acpi_remap const *r = remap; r < reinterpret_cast<Acpi_remap *>(reinterpret_cast<mword>(this) + length); r = reinterpret_cast<Acpi_remap *>(reinterpret_cast<mword>(r) + r->length)) {
  2003a5:	8d 58 30             	lea    0x30(%eax),%ebx
  2003a8:	8b 46 04             	mov    0x4(%esi),%eax
  2003ab:	01 f0                	add    %esi,%eax
  2003ad:	39 c3                	cmp    %eax,%ebx
  2003af:	73 22                	jae    2003d3 <_ZNK15Acpi_table_dmar5parseEv+0x3b>
        switch (r->type) {
  2003b1:	0f b7 03             	movzwl (%ebx),%eax
  2003b4:	85 c0                	test   %eax,%eax
  2003b6:	74 0c                	je     2003c4 <_ZNK15Acpi_table_dmar5parseEv+0x2c>
  2003b8:	48                   	dec    %eax
  2003b9:	75 10                	jne    2003cb <_ZNK15Acpi_table_dmar5parseEv+0x33>
            case Acpi_remap::DMAR:
                static_cast<Acpi_dmar const *>(r)->parse();
                break;
            case Acpi_remap::RMRR:
                static_cast<Acpi_rmrr const *>(r)->parse();
  2003bb:	89 d8                	mov    %ebx,%eax
  2003bd:	e8 32 ff ff ff       	call   2002f4 <_ZNK9Acpi_rmrr5parseEv>
                break;
  2003c2:	eb 07                	jmp    2003cb <_ZNK15Acpi_table_dmar5parseEv+0x33>
        return;

    for (Acpi_remap const *r = remap; r < reinterpret_cast<Acpi_remap *>(reinterpret_cast<mword>(this) + length); r = reinterpret_cast<Acpi_remap *>(reinterpret_cast<mword>(r) + r->length)) {
        switch (r->type) {
            case Acpi_remap::DMAR:
                static_cast<Acpi_dmar const *>(r)->parse();
  2003c4:	89 d8                	mov    %ebx,%eax
  2003c6:	e8 cb fd ff ff       	call   200196 <_ZNK9Acpi_dmar5parseEv>
void Acpi_table_dmar::parse() const
{
    if (!Cmdline::iommu)
        return;

    for (Acpi_remap const *r = remap; r < reinterpret_cast<Acpi_remap *>(reinterpret_cast<mword>(this) + length); r = reinterpret_cast<Acpi_remap *>(reinterpret_cast<mword>(r) + r->length)) {
  2003cb:	0f b7 43 02          	movzwl 0x2(%ebx),%eax
  2003cf:	01 c3                	add    %eax,%ebx
  2003d1:	eb d5                	jmp    2003a8 <_ZNK15Acpi_table_dmar5parseEv+0x10>

        ALWAYS_INLINE
        static inline void enable (unsigned flags)
        {
            if (!(flags & 1))
  2003d3:	f6 46 25 01          	testb  $0x1,0x25(%esi)
  2003d7:	75 0a                	jne    2003e3 <_ZNK15Acpi_table_dmar5parseEv+0x4b>
                gcmd &= ~GCMD_IRE;
  2003d9:	81 25 a8 9f 01 c0 ff 	andl   $0xfdffffff,0xc0019fa8
  2003e0:	ff ff fd 

            for (Dmar *dmar = list; dmar; dmar = dmar->next)
  2003e3:	a1 50 a4 01 c0       	mov    0xc001a450,%eax
  2003e8:	85 c0                	test   %eax,%eax
  2003ea:	74 20                	je     20040c <_ZNK15Acpi_table_dmar5parseEv+0x74>
                dmar->command (gcmd);
  2003ec:	8b 15 a8 9f 01 c0    	mov    0xc0019fa8,%edx

        template <typename T>
        ALWAYS_INLINE
        inline void write (Reg reg, T val)
        {
            *reinterpret_cast<T volatile *>(reg_base + reg) = val;
  2003f2:	8b 48 04             	mov    0x4(%eax),%ecx
  2003f5:	89 51 18             	mov    %edx,0x18(%ecx)

        template <typename T>
        ALWAYS_INLINE
        inline T read (Reg reg)
        {
            return *reinterpret_cast<T volatile *>(reg_base + reg);
  2003f8:	8b 48 04             	mov    0x4(%eax),%ecx
  2003fb:	8b 49 1c             	mov    0x1c(%ecx),%ecx

        ALWAYS_INLINE
        inline void command (uint32 val)
        {
            write<uint32>(REG_GCMD, val);
            while ((read<uint32>(REG_GSTS) & val) != val)
  2003fe:	21 d1                	and    %edx,%ecx
  200400:	39 d1                	cmp    %edx,%ecx
  200402:	74 04                	je     200408 <_ZNK15Acpi_table_dmar5parseEv+0x70>
}

ALWAYS_INLINE
static inline void pause()
{
    asm volatile ("pause" : : : "memory");
  200404:	f3 90                	pause  
  200406:	eb f0                	jmp    2003f8 <_ZNK15Acpi_table_dmar5parseEv+0x60>
        static inline void enable (unsigned flags)
        {
            if (!(flags & 1))
                gcmd &= ~GCMD_IRE;

            for (Dmar *dmar = list; dmar; dmar = dmar->next)
  200408:	8b 00                	mov    (%eax),%eax
  20040a:	eb dc                	jmp    2003e8 <_ZNK15Acpi_table_dmar5parseEv+0x50>
        ALWAYS_INLINE
        static inline T sub (T &ptr, T v) { return __sync_sub_and_fetch (&ptr, v); }

        template <typename T>
        ALWAYS_INLINE
        static inline void set_mask (T &ptr, T v) { __sync_or_and_fetch (&ptr, v); }
  20040c:	f0 83 0d 10 e0 01 c0 	lock orl $0x1,0xc001e010
  200413:	01 
    }

    Dmar::enable (flags);

    Hip::set_feature (Hip::FEAT_IOMMU);
}
  200414:	5b                   	pop    %ebx
  200415:	5e                   	pop    %esi
  200416:	c3                   	ret    
  200417:	90                   	nop

00200418 <_ZNK15Acpi_table_fadt5parseEv>:
#include "acpi_fadt.hpp"
#include "io.hpp"
#include "x86.hpp"

void Acpi_table_fadt::parse() const
{
  200418:	57                   	push   %edi
  200419:	56                   	push   %esi
  20041a:	53                   	push   %ebx
    Acpi::irq     = sci_irq;
  20041b:	0f b7 50 2e          	movzwl 0x2e(%eax),%edx
  20041f:	89 15 88 a2 01 c0    	mov    %edx,0xc001a288
    Acpi::feature = flags;
  200425:	8b 50 70             	mov    0x70(%eax),%edx
  200428:	89 15 90 a2 01 c0    	mov    %edx,0xc001a290

    // XXX: Use x_pm blocks if they exist

    if (pm1a_evt_blk) {
  20042e:	8b 50 38             	mov    0x38(%eax),%edx
  200431:	85 d2                	test   %edx,%edx
  200433:	74 47                	je     20047c <_ZNK15Acpi_table_fadt5parseEv+0x64>
        Acpi::pm1a_sts.init (Acpi_gas::IO, pm1_evt_len >> 1, pm1a_evt_blk);
  200435:	0f b6 48 58          	movzbl 0x58(%eax),%ecx
  200439:	89 15 2c a3 01 c0    	mov    %edx,0xc001a32c
            FIXED       = 0x7f
        };

        void init (Asid reg_asid, unsigned reg_bytes, uint64 reg_addr)
        {
            asid = reg_asid;
  20043f:	c6 05 28 a3 01 c0 01 	movb   $0x1,0xc001a328
  200446:	c7 05 30 a3 01 c0 00 	movl   $0x0,0xc001a330
  20044d:	00 00 00 
  200450:	d1 f9                	sar    %ecx
            bits = static_cast<uint8>(reg_bytes * 8);
  200452:	88 cb                	mov    %cl,%bl
        Acpi::pm1a_ena.init (Acpi_gas::IO, pm1_evt_len >> 1, pm1a_evt_blk + (pm1_evt_len >> 1));
  200454:	01 ca                	add    %ecx,%edx
  200456:	c0 e3 03             	shl    $0x3,%bl
  200459:	88 1d 29 a3 01 c0    	mov    %bl,0xc001a329
            FIXED       = 0x7f
        };

        void init (Asid reg_asid, unsigned reg_bytes, uint64 reg_addr)
        {
            asid = reg_asid;
  20045f:	c6 05 10 a3 01 c0 01 	movb   $0x1,0xc001a310
            bits = static_cast<uint8>(reg_bytes * 8);
  200466:	88 1d 11 a3 01 c0    	mov    %bl,0xc001a311
  20046c:	89 15 14 a3 01 c0    	mov    %edx,0xc001a314
  200472:	c7 05 18 a3 01 c0 00 	movl   $0x0,0xc001a318
  200479:	00 00 00 
    }
    if (pm1b_evt_blk) {
  20047c:	8b 50 3c             	mov    0x3c(%eax),%edx
  20047f:	85 d2                	test   %edx,%edx
  200481:	74 47                	je     2004ca <_ZNK15Acpi_table_fadt5parseEv+0xb2>
        Acpi::pm1b_sts.init (Acpi_gas::IO, pm1_evt_len >> 1, pm1b_evt_blk);
  200483:	0f b6 48 58          	movzbl 0x58(%eax),%ecx
  200487:	89 15 20 a3 01 c0    	mov    %edx,0xc001a320
            FIXED       = 0x7f
        };

        void init (Asid reg_asid, unsigned reg_bytes, uint64 reg_addr)
        {
            asid = reg_asid;
  20048d:	c6 05 1c a3 01 c0 01 	movb   $0x1,0xc001a31c
  200494:	c7 05 24 a3 01 c0 00 	movl   $0x0,0xc001a324
  20049b:	00 00 00 
  20049e:	d1 f9                	sar    %ecx
            bits = static_cast<uint8>(reg_bytes * 8);
  2004a0:	88 cb                	mov    %cl,%bl
        Acpi::pm1b_ena.init (Acpi_gas::IO, pm1_evt_len >> 1, pm1b_evt_blk + (pm1_evt_len >> 1));
  2004a2:	01 ca                	add    %ecx,%edx
  2004a4:	c0 e3 03             	shl    $0x3,%bl
  2004a7:	88 1d 1d a3 01 c0    	mov    %bl,0xc001a31d
            FIXED       = 0x7f
        };

        void init (Asid reg_asid, unsigned reg_bytes, uint64 reg_addr)
        {
            asid = reg_asid;
  2004ad:	c6 05 04 a3 01 c0 01 	movb   $0x1,0xc001a304
            bits = static_cast<uint8>(reg_bytes * 8);
  2004b4:	88 1d 05 a3 01 c0    	mov    %bl,0xc001a305
  2004ba:	89 15 08 a3 01 c0    	mov    %edx,0xc001a308
  2004c0:	c7 05 0c a3 01 c0 00 	movl   $0x0,0xc001a30c
  2004c7:	00 00 00 
    }

    if (pm1a_cnt_blk)
  2004ca:	8b 48 40             	mov    0x40(%eax),%ecx
  2004cd:	85 c9                	test   %ecx,%ecx
  2004cf:	74 23                	je     2004f4 <_ZNK15Acpi_table_fadt5parseEv+0xdc>
  2004d1:	8a 50 59             	mov    0x59(%eax),%dl
            FIXED       = 0x7f
        };

        void init (Asid reg_asid, unsigned reg_bytes, uint64 reg_addr)
        {
            asid = reg_asid;
  2004d4:	c6 05 f8 a2 01 c0 01 	movb   $0x1,0xc001a2f8
        Acpi::pm1a_cnt.init (Acpi_gas::IO, pm1_cnt_len, pm1a_cnt_blk);
  2004db:	89 0d fc a2 01 c0    	mov    %ecx,0xc001a2fc
  2004e1:	c7 05 00 a3 01 c0 00 	movl   $0x0,0xc001a300
  2004e8:	00 00 00 
            bits = static_cast<uint8>(reg_bytes * 8);
  2004eb:	c0 e2 03             	shl    $0x3,%dl
  2004ee:	88 15 f9 a2 01 c0    	mov    %dl,0xc001a2f9

    if (pm1b_cnt_blk)
  2004f4:	8b 48 44             	mov    0x44(%eax),%ecx
  2004f7:	85 c9                	test   %ecx,%ecx
  2004f9:	74 23                	je     20051e <_ZNK15Acpi_table_fadt5parseEv+0x106>
  2004fb:	8a 50 59             	mov    0x59(%eax),%dl
            FIXED       = 0x7f
        };

        void init (Asid reg_asid, unsigned reg_bytes, uint64 reg_addr)
        {
            asid = reg_asid;
  2004fe:	c6 05 ec a2 01 c0 01 	movb   $0x1,0xc001a2ec
        Acpi::pm1b_cnt.init (Acpi_gas::IO, pm1_cnt_len, pm1b_cnt_blk);
  200505:	89 0d f0 a2 01 c0    	mov    %ecx,0xc001a2f0
  20050b:	c7 05 f4 a2 01 c0 00 	movl   $0x0,0xc001a2f4
  200512:	00 00 00 
            bits = static_cast<uint8>(reg_bytes * 8);
  200515:	c0 e2 03             	shl    $0x3,%dl
  200518:	88 15 ed a2 01 c0    	mov    %dl,0xc001a2ed

    if (pm2_cnt_blk)
  20051e:	8b 48 48             	mov    0x48(%eax),%ecx
  200521:	85 c9                	test   %ecx,%ecx
  200523:	74 23                	je     200548 <_ZNK15Acpi_table_fadt5parseEv+0x130>
  200525:	8a 50 5a             	mov    0x5a(%eax),%dl
            FIXED       = 0x7f
        };

        void init (Asid reg_asid, unsigned reg_bytes, uint64 reg_addr)
        {
            asid = reg_asid;
  200528:	c6 05 e0 a2 01 c0 01 	movb   $0x1,0xc001a2e0
        Acpi::pm2_cnt.init (Acpi_gas::IO, pm2_cnt_len, pm2_cnt_blk);
  20052f:	89 0d e4 a2 01 c0    	mov    %ecx,0xc001a2e4
  200535:	c7 05 e8 a2 01 c0 00 	movl   $0x0,0xc001a2e8
  20053c:	00 00 00 
            bits = static_cast<uint8>(reg_bytes * 8);
  20053f:	c0 e2 03             	shl    $0x3,%dl
  200542:	88 15 e1 a2 01 c0    	mov    %dl,0xc001a2e1

    if (pm_tmr_blk)
  200548:	8b 48 4c             	mov    0x4c(%eax),%ecx
  20054b:	85 c9                	test   %ecx,%ecx
  20054d:	74 23                	je     200572 <_ZNK15Acpi_table_fadt5parseEv+0x15a>
  20054f:	8a 50 5b             	mov    0x5b(%eax),%dl
            FIXED       = 0x7f
        };

        void init (Asid reg_asid, unsigned reg_bytes, uint64 reg_addr)
        {
            asid = reg_asid;
  200552:	c6 05 d4 a2 01 c0 01 	movb   $0x1,0xc001a2d4
        Acpi::pm_tmr.init (Acpi_gas::IO, pm_tmr_len, pm_tmr_blk);
  200559:	89 0d d8 a2 01 c0    	mov    %ecx,0xc001a2d8
  20055f:	c7 05 dc a2 01 c0 00 	movl   $0x0,0xc001a2dc
  200566:	00 00 00 
            bits = static_cast<uint8>(reg_bytes * 8);
  200569:	c0 e2 03             	shl    $0x3,%dl
  20056c:	88 15 d5 a2 01 c0    	mov    %dl,0xc001a2d5

    if (gpe0_blk) {
  200572:	8b 50 50             	mov    0x50(%eax),%edx
  200575:	85 d2                	test   %edx,%edx
  200577:	74 47                	je     2005c0 <_ZNK15Acpi_table_fadt5parseEv+0x1a8>
        Acpi::gpe0_sts.init (Acpi_gas::IO, gpe0_blk_len >> 1, gpe0_blk);
  200579:	0f b6 48 5c          	movzbl 0x5c(%eax),%ecx
  20057d:	89 15 c0 a2 01 c0    	mov    %edx,0xc001a2c0
            FIXED       = 0x7f
        };

        void init (Asid reg_asid, unsigned reg_bytes, uint64 reg_addr)
        {
            asid = reg_asid;
  200583:	c6 05 bc a2 01 c0 01 	movb   $0x1,0xc001a2bc
  20058a:	c7 05 c4 a2 01 c0 00 	movl   $0x0,0xc001a2c4
  200591:	00 00 00 
  200594:	d1 f9                	sar    %ecx
            bits = static_cast<uint8>(reg_bytes * 8);
  200596:	88 cb                	mov    %cl,%bl
        Acpi::gpe0_ena.init (Acpi_gas::IO, gpe0_blk_len >> 1, gpe0_blk + (gpe0_blk_len >> 1));
  200598:	01 ca                	add    %ecx,%edx
  20059a:	c0 e3 03             	shl    $0x3,%bl
  20059d:	88 1d bd a2 01 c0    	mov    %bl,0xc001a2bd
            FIXED       = 0x7f
        };

        void init (Asid reg_asid, unsigned reg_bytes, uint64 reg_addr)
        {
            asid = reg_asid;
  2005a3:	c6 05 a4 a2 01 c0 01 	movb   $0x1,0xc001a2a4
            bits = static_cast<uint8>(reg_bytes * 8);
  2005aa:	88 1d a5 a2 01 c0    	mov    %bl,0xc001a2a5
  2005b0:	89 15 a8 a2 01 c0    	mov    %edx,0xc001a2a8
  2005b6:	c7 05 ac a2 01 c0 00 	movl   $0x0,0xc001a2ac
  2005bd:	00 00 00 
    }

    if (gpe1_blk) {
  2005c0:	8b 50 54             	mov    0x54(%eax),%edx
  2005c3:	85 d2                	test   %edx,%edx
  2005c5:	74 47                	je     20060e <_ZNK15Acpi_table_fadt5parseEv+0x1f6>
        Acpi::gpe1_sts.init (Acpi_gas::IO, gpe1_blk_len >> 1, gpe1_blk);
  2005c7:	0f b6 48 5d          	movzbl 0x5d(%eax),%ecx
  2005cb:	89 15 b4 a2 01 c0    	mov    %edx,0xc001a2b4
            FIXED       = 0x7f
        };

        void init (Asid reg_asid, unsigned reg_bytes, uint64 reg_addr)
        {
            asid = reg_asid;
  2005d1:	c6 05 b0 a2 01 c0 01 	movb   $0x1,0xc001a2b0
  2005d8:	c7 05 b8 a2 01 c0 00 	movl   $0x0,0xc001a2b8
  2005df:	00 00 00 
  2005e2:	d1 f9                	sar    %ecx
            bits = static_cast<uint8>(reg_bytes * 8);
  2005e4:	88 cb                	mov    %cl,%bl
        Acpi::gpe1_ena.init (Acpi_gas::IO, gpe1_blk_len >> 1, gpe1_blk + (gpe1_blk_len >> 1));
  2005e6:	01 ca                	add    %ecx,%edx
  2005e8:	c0 e3 03             	shl    $0x3,%bl
  2005eb:	88 1d b1 a2 01 c0    	mov    %bl,0xc001a2b1
            FIXED       = 0x7f
        };

        void init (Asid reg_asid, unsigned reg_bytes, uint64 reg_addr)
        {
            asid = reg_asid;
  2005f1:	c6 05 98 a2 01 c0 01 	movb   $0x1,0xc001a298
            bits = static_cast<uint8>(reg_bytes * 8);
  2005f8:	88 1d 99 a2 01 c0    	mov    %bl,0xc001a299
  2005fe:	89 15 9c a2 01 c0    	mov    %edx,0xc001a29c
  200604:	c7 05 a0 a2 01 c0 00 	movl   $0x0,0xc001a2a0
  20060b:	00 00 00 
    }

    if (length >= 129) {
  20060e:	81 78 04 80 00 00 00 	cmpl   $0x80,0x4(%eax)
  200615:	76 1b                	jbe    200632 <_ZNK15Acpi_table_fadt5parseEv+0x21a>
        Acpi::reset_reg = reset_reg;
  200617:	bf c8 a2 01 c0       	mov    $0xc001a2c8,%edi
  20061c:	b9 03 00 00 00       	mov    $0x3,%ecx
        Acpi::reset_val = reset_value;
  200621:	8a 90 80 00 00 00    	mov    0x80(%eax),%dl
        Acpi::gpe1_sts.init (Acpi_gas::IO, gpe1_blk_len >> 1, gpe1_blk);
        Acpi::gpe1_ena.init (Acpi_gas::IO, gpe1_blk_len >> 1, gpe1_blk + (gpe1_blk_len >> 1));
    }

    if (length >= 129) {
        Acpi::reset_reg = reset_reg;
  200627:	8d 70 74             	lea    0x74(%eax),%esi
  20062a:	f3 a5                	rep movsl %ds:(%esi),%es:(%edi)
        Acpi::reset_val = reset_value;
  20062c:	88 15 8c a2 01 c0    	mov    %dl,0xc001a28c
    }

    if (smi_cmd && acpi_enable) {
  200632:	8b 50 30             	mov    0x30(%eax),%edx
  200635:	85 d2                	test   %edx,%edx
  200637:	74 1a                	je     200653 <_ZNK15Acpi_table_fadt5parseEv+0x23b>
  200639:	8a 40 34             	mov    0x34(%eax),%al
  20063c:	84 c0                	test   %al,%al
  20063e:	74 13                	je     200653 <_ZNK15Acpi_table_fadt5parseEv+0x23b>

        template <typename T>
        ALWAYS_INLINE
        static inline void out (unsigned port, T val)
        {
            asm volatile ("out %0, %w1" : : "a" (val), "Nd" (port));
  200640:	ee                   	out    %al,(%dx)
        Io::out (smi_cmd, acpi_enable);
        while (!(Acpi::read (Acpi::PM1_CNT) & Acpi::PM1_CNT_SCI_EN))
  200641:	b8 02 00 00 00       	mov    $0x2,%eax
  200646:	e8 cb 02 e0 bf       	call   c0000916 <_ZN4Acpi4readENS_8RegisterE>
  20064b:	a8 01                	test   $0x1,%al
  20064d:	75 04                	jne    200653 <_ZNK15Acpi_table_fadt5parseEv+0x23b>
  20064f:	f3 90                	pause  
  200651:	eb ee                	jmp    200641 <_ZNK15Acpi_table_fadt5parseEv+0x229>
            pause();
    }
}
  200653:	5b                   	pop    %ebx
  200654:	5e                   	pop    %esi
  200655:	5f                   	pop    %edi
  200656:	c3                   	ret    
  200657:	90                   	nop

00200658 <_ZNK15Acpi_table_hpet5parseEv>:
#include "hpet.hpp"
#include "pd.hpp"

void Acpi_table_hpet::parse() const
{
    if (hpet.asid == Acpi_gas::MEMORY)
  200658:	80 78 28 00          	cmpb   $0x0,0x28(%eax)
  20065c:	75 45                	jne    2006a3 <_ZNK15Acpi_table_hpet5parseEv+0x4b>
#include "acpi_hpet.hpp"
#include "hpet.hpp"
#include "pd.hpp"

void Acpi_table_hpet::parse() const
{
  20065e:	56                   	push   %esi
    public:
        ALWAYS_INLINE
        explicit inline Hpet (Paddr p, unsigned i) : List<Hpet> (list), phys (p), id (i), rid (0) {}

        ALWAYS_INLINE
        static inline void *operator new (size_t, Quota &quota) { return cache.alloc(quota); }
  20065f:	ba 50 b4 01 c0       	mov    $0xc001b450,%edx
  200664:	53                   	push   %ebx
  200665:	89 c3                	mov    %eax,%ebx
  200667:	b8 ec aa 01 c0       	mov    $0xc001aaec,%eax
  20066c:	e8 05 fc e0 bf       	call   c0010276 <_ZN10Slab_cache5allocER5Quota>
    if (hpet.asid == Acpi_gas::MEMORY)
        new (Pd::kern.quota) Hpet (static_cast<Paddr>(hpet.addr), id);
  200671:	0f b6 73 34          	movzbl 0x34(%ebx),%esi

    public:
        ALWAYS_INLINE
        explicit inline List (T *&list) : next (nullptr)
        {
            T **ptr; for (ptr = &list; *ptr; ptr = &(*ptr)->next) ; *ptr = static_cast<T *>(this);
  200675:	b9 e8 aa 01 c0       	mov    $0xc001aae8,%ecx
  20067a:	8b 5b 2c             	mov    0x2c(%ebx),%ebx
    protected:
        T *next;

    public:
        ALWAYS_INLINE
        explicit inline List (T *&list) : next (nullptr)
  20067d:	c7 00 00 00 00 00    	movl   $0x0,(%eax)
        {
            T **ptr; for (ptr = &list; *ptr; ptr = &(*ptr)->next) ; *ptr = static_cast<T *>(this);
  200683:	8b 15 e8 aa 01 c0    	mov    0xc001aae8,%edx
  200689:	85 d2                	test   %edx,%edx
  20068b:	74 06                	je     200693 <_ZNK15Acpi_table_hpet5parseEv+0x3b>
  20068d:	89 d1                	mov    %edx,%ecx
  20068f:	8b 12                	mov    (%edx),%edx
  200691:	eb f6                	jmp    200689 <_ZNK15Acpi_table_hpet5parseEv+0x31>
  200693:	89 01                	mov    %eax,(%ecx)
        static Hpet *       list;
        static Slab_cache   cache;

    public:
        ALWAYS_INLINE
        explicit inline Hpet (Paddr p, unsigned i) : List<Hpet> (list), phys (p), id (i), rid (0) {}
  200695:	89 58 04             	mov    %ebx,0x4(%eax)
  200698:	89 70 08             	mov    %esi,0x8(%eax)
  20069b:	66 c7 40 0c 00 00    	movw   $0x0,0xc(%eax)
}
  2006a1:	5b                   	pop    %ebx
  2006a2:	5e                   	pop    %esi
  2006a3:	c3                   	ret    

002006a4 <_ZN15Acpi_table_madt10parse_intrEPK9Acpi_apic>:
    for (unsigned short i = 0; i <= max && gsi < NUM_GSI; i++, gsi++)
        Gsi::gsi_table[gsi].ioapic = ioapic;
}

void Acpi_table_madt::parse_intr (Acpi_apic const *ptr)
{
  2006a4:	55                   	push   %ebp
  2006a5:	57                   	push   %edi
  2006a6:	89 c7                	mov    %eax,%edi
  2006a8:	56                   	push   %esi
  2006a9:	53                   	push   %ebx
    Acpi_intr const *p = static_cast<Acpi_intr const *>(ptr);

    unsigned irq = p->irq;
  2006aa:	0f b6 70 03          	movzbl 0x3(%eax),%esi
    unsigned gsi = p->gsi;
  2006ae:	8b 48 04             	mov    0x4(%eax),%ecx

    if (EXPECT_FALSE (gsi >= NUM_GSI || irq >= NUM_IRQ || p->bus))
  2006b1:	83 fe 0f             	cmp    $0xf,%esi
  2006b4:	0f 97 c3             	seta   %bl
  2006b7:	83 f9 7f             	cmp    $0x7f,%ecx
  2006ba:	0f 97 c2             	seta   %dl
  2006bd:	08 da                	or     %bl,%dl
  2006bf:	75 7f                	jne    200740 <_ZN15Acpi_table_madt10parse_intrEPK9Acpi_apic+0x9c>
  2006c1:	80 78 02 00          	cmpb   $0x0,0x2(%eax)
  2006c5:	75 79                	jne    200740 <_ZN15Acpi_table_madt10parse_intrEPK9Acpi_apic+0x9c>
        return;

    Gsi::irq_table[irq] = gsi;
  2006c7:	89 0c b5 a0 a4 01 c0 	mov    %ecx,-0x3ffe5b60(,%esi,4)

    Gsi::gsi_table[gsi].pol = p->flags.pol == Acpi_inti::POL_LOW   || (p->flags.pol == Acpi_inti::POL_CONFORMING && irq == Acpi::irq);
  2006ce:	8a 58 08             	mov    0x8(%eax),%bl
  2006d1:	b0 01                	mov    $0x1,%al
  2006d3:	80 e3 03             	and    $0x3,%bl
  2006d6:	80 fb 03             	cmp    $0x3,%bl
  2006d9:	74 0f                	je     2006ea <_ZN15Acpi_table_madt10parse_intrEPK9Acpi_apic+0x46>
  2006db:	31 c0                	xor    %eax,%eax
  2006dd:	84 db                	test   %bl,%bl
  2006df:	75 09                	jne    2006ea <_ZN15Acpi_table_madt10parse_intrEPK9Acpi_apic+0x46>
  2006e1:	3b 35 88 a2 01 c0    	cmp    0xc001a288,%esi
  2006e7:	0f 94 c0             	sete   %al
  2006ea:	6b e9 0c             	imul   $0xc,%ecx,%ebp
  2006ed:	c0 e0 05             	shl    $0x5,%al
  2006f0:	8a 9d e9 a4 01 c0    	mov    -0x3ffe5b17(%ebp),%bl
  2006f6:	80 e3 df             	and    $0xdf,%bl
  2006f9:	08 c3                	or     %al,%bl
  2006fb:	88 9d e9 a4 01 c0    	mov    %bl,-0x3ffe5b17(%ebp)
    Gsi::gsi_table[gsi].trg = p->flags.trg == Acpi_inti::TRG_LEVEL || (p->flags.trg == Acpi_inti::TRG_CONFORMING && irq == Acpi::irq);
  200701:	8a 47 08             	mov    0x8(%edi),%al
  200704:	24 0c                	and    $0xc,%al
  200706:	3c 0c                	cmp    $0xc,%al
  200708:	74 0f                	je     200719 <_ZN15Acpi_table_madt10parse_intrEPK9Acpi_apic+0x75>
  20070a:	84 c0                	test   %al,%al
  20070c:	75 0d                	jne    20071b <_ZN15Acpi_table_madt10parse_intrEPK9Acpi_apic+0x77>
  20070e:	3b 35 88 a2 01 c0    	cmp    0xc001a288,%esi
  200714:	0f 94 c2             	sete   %dl
  200717:	eb 02                	jmp    20071b <_ZN15Acpi_table_madt10parse_intrEPK9Acpi_apic+0x77>
  200719:	b2 01                	mov    $0x1,%dl
  20071b:	6b c9 0c             	imul   $0xc,%ecx,%ecx
  20071e:	c0 e2 07             	shl    $0x7,%dl
  200721:	8a 81 e9 a4 01 c0    	mov    -0x3ffe5b17(%ecx),%al
  200727:	24 7f                	and    $0x7f,%al
  200729:	08 c2                	or     %al,%dl

    if (irq == Acpi::irq)
  20072b:	3b 35 88 a2 01 c0    	cmp    0xc001a288,%esi
        return;

    Gsi::irq_table[irq] = gsi;

    Gsi::gsi_table[gsi].pol = p->flags.pol == Acpi_inti::POL_LOW   || (p->flags.pol == Acpi_inti::POL_CONFORMING && irq == Acpi::irq);
    Gsi::gsi_table[gsi].trg = p->flags.trg == Acpi_inti::TRG_LEVEL || (p->flags.trg == Acpi_inti::TRG_CONFORMING && irq == Acpi::irq);
  200731:	88 91 e9 a4 01 c0    	mov    %dl,-0x3ffe5b17(%ecx)

    if (irq == Acpi::irq)
  200737:	75 07                	jne    200740 <_ZN15Acpi_table_madt10parse_intrEPK9Acpi_apic+0x9c>
        sci_overridden = true;
  200739:	c6 05 80 a2 01 c0 01 	movb   $0x1,0xc001a280
}
  200740:	5b                   	pop    %ebx
  200741:	5e                   	pop    %esi
  200742:	5f                   	pop    %edi
  200743:	5d                   	pop    %ebp
  200744:	c3                   	ret    
  200745:	90                   	nop

00200746 <_ZN15Acpi_table_madt11parse_lapicEPK9Acpi_apic>:

void Acpi_table_madt::parse_lapic (Acpi_apic const *ptr)
{
    Acpi_lapic const *p = static_cast<Acpi_lapic const *>(ptr);

    if (p->flags & 1 && Cpu::online < NUM_CPU) {
  200746:	f6 40 04 01          	testb  $0x1,0x4(%eax)
  20074a:	74 26                	je     200772 <_ZN15Acpi_table_madt11parse_lapicEPK9Acpi_apic+0x2c>
  20074c:	8b 15 40 a4 01 c0    	mov    0xc001a440,%edx
  200752:	83 fa 3f             	cmp    $0x3f,%edx
  200755:	77 1b                	ja     200772 <_ZN15Acpi_table_madt11parse_lapicEPK9Acpi_apic+0x2c>
        Cpu::acpi_id[Cpu::online]   = p->acpi_id;
  200757:	8a 48 02             	mov    0x2(%eax),%cl
  20075a:	88 8a 00 a4 01 c0    	mov    %cl,-0x3ffe5c00(%edx)
        Cpu::apic_id[Cpu::online++] = p->apic_id;
  200760:	8d 4a 01             	lea    0x1(%edx),%ecx
  200763:	89 0d 40 a4 01 c0    	mov    %ecx,0xc001a440
  200769:	8a 40 03             	mov    0x3(%eax),%al
  20076c:	88 82 c0 a3 01 c0    	mov    %al,-0x3ffe5c40(%edx)
  200772:	c3                   	ret    
  200773:	90                   	nop

00200774 <_ZN15Acpi_table_madt12parse_ioapicEPK9Acpi_apic>:
    }
}

void Acpi_table_madt::parse_ioapic (Acpi_apic const *ptr)
{
  200774:	55                   	push   %ebp
    public:
        INIT
        Ioapic (Paddr, unsigned, unsigned);

        ALWAYS_INLINE
        static inline void *operator new (size_t, Quota &quota) { return cache.alloc(quota); }
  200775:	ba 50 b4 01 c0       	mov    $0xc001b450,%edx
  20077a:	57                   	push   %edi
  20077b:	56                   	push   %esi
  20077c:	53                   	push   %ebx
  20077d:	89 c3                	mov    %eax,%ebx
  20077f:	b8 5c b0 01 c0       	mov    $0xc001b05c,%eax
  200784:	e8 ed fa e0 bf       	call   c0010276 <_ZN10Slab_cache5allocER5Quota>
    Acpi_ioapic const *p = static_cast<Acpi_ioapic const *>(ptr);

    Ioapic *ioapic = new (Pd::kern.quota) Ioapic (p->phys, p->id, p->gsi);
  200789:	0f b6 4b 02          	movzbl 0x2(%ebx),%ecx
  20078d:	8b 53 04             	mov    0x4(%ebx),%edx
  200790:	ff 73 08             	pushl  0x8(%ebx)
  200793:	89 c6                	mov    %eax,%esi
  200795:	e8 6a 0b 00 00       	call   201304 <_ZN6IoapicC1Emjj>

    unsigned gsi = p->gsi;
  20079a:	8b 7b 08             	mov    0x8(%ebx),%edi
        }

        ALWAYS_INLINE
        inline uint32 read (Register reg)
        {
            Lock_guard <Spinlock> guard (lock);
  20079d:	8d 46 12             	lea    0x12(%esi),%eax

        ALWAYS_INLINE
        static inline bool preempt_status()
        {
            mword flags = 0;
            asm volatile ("pushf; pop %0" : "=r" (flags));
  2007a0:	9c                   	pushf  
  2007a1:	5b                   	pop    %ebx
            return flags & 0x200;
  2007a2:	c1 eb 09             	shr    $0x9,%ebx

    public:
        ALWAYS_INLINE
        inline Lock_guard (T &l) : _lock (l), pre(Cpu::preempt_status())
        {
            if (pre)
  2007a5:	80 e3 01             	and    $0x1,%bl
  2007a8:	5a                   	pop    %edx
  2007a9:	74 27                	je     2007d2 <_ZN15Acpi_table_madt12parse_ioapicEPK9Acpi_apic+0x5e>
        }

        ALWAYS_INLINE
        static inline void preempt_disable()
        {
            assert (preemption);
  2007ab:	80 3d 00 f7 ff cf 00 	cmpb   $0x0,0xcffff700
  2007b2:	75 16                	jne    2007ca <_ZN15Acpi_table_madt12parse_ioapicEPK9Acpi_apic+0x56>
  2007b4:	68 e0 61 01 c0       	push   $0xc00161e0
  2007b9:	68 b7 00 00 00       	push   $0xb7
  2007be:	68 12 61 01 c0       	push   $0xc0016112
  2007c3:	68 83 61 01 c0       	push   $0xc0016183
  2007c8:	eb 3d                	jmp    200807 <_ZN15Acpi_table_madt12parse_ioapicEPK9Acpi_apic+0x93>

            asm volatile ("cli" : : : "memory");
  2007ca:	fa                   	cli    
            preemption = false;
  2007cb:	c6 05 00 f7 ff cf 00 	movb   $0x0,0xcffff700
                Cpu::preempt_disable();

            _lock.lock();
  2007d2:	e8 55 03 e0 bf       	call   c0000b2c <_ZN8Spinlock4lockEv>
        };

        ALWAYS_INLINE
        inline void index (Register reg)
        {
            *reinterpret_cast<uint8 volatile *>(reg_base + IOAPIC_IDX) = reg;
  2007d7:	8b 46 04             	mov    0x4(%esi),%eax
  2007da:	c6 00 01             	movb   $0x1,(%eax)
        ALWAYS_INLINE
        inline uint32 read (Register reg)
        {
            Lock_guard <Spinlock> guard (lock);
            index (reg);
            return *reinterpret_cast<uint32 volatile *>(reg_base + IOAPIC_WND);
  2007dd:	8b 46 04             	mov    0x4(%esi),%eax
  2007e0:	8b 40 10             	mov    0x10(%eax),%eax
        }

        ALWAYS_INLINE
        inline void unlock()
        {
            asm volatile ("incb %0" : "=m" (val) : : "memory");
  2007e3:	fe 46 12             	incb   0x12(%esi)
        ALWAYS_INLINE
        inline ~Lock_guard()
        {
            _lock.unlock();

            if (pre)
  2007e6:	84 db                	test   %bl,%bl
  2007e8:	74 2f                	je     200819 <_ZN15Acpi_table_madt12parse_ioapicEPK9Acpi_apic+0xa5>
        }

        ALWAYS_INLINE
        static inline void preempt_enable()
        {
            assert (!preemption);
  2007ea:	80 3d 00 f7 ff cf 00 	cmpb   $0x0,0xcffff700
  2007f1:	74 1e                	je     200811 <_ZN15Acpi_table_madt12parse_ioapicEPK9Acpi_apic+0x9d>
  2007f3:	68 a0 61 01 c0       	push   $0xc00161a0
  2007f8:	68 c0 00 00 00       	push   $0xc0
  2007fd:	68 12 61 01 c0       	push   $0xc0016112
  200802:	68 82 61 01 c0       	push   $0xc0016182
  200807:	68 69 60 01 c0       	push   $0xc0016069
  20080c:	e8 35 11 e0 bf       	call   c0001946 <_ZN7Console5panicEPKcz>

            preemption = true;
  200811:	c6 05 00 f7 ff cf 01 	movb   $0x1,0xcffff700
            asm volatile ("sti" : : : "memory");
  200818:	fb                   	sti    
  200819:	6b ef 0c             	imul   $0xc,%edi,%ebp

        ALWAYS_INLINE
        inline unsigned prq() { return read (IOAPIC_VER) >> 15 & 0x1; }

        ALWAYS_INLINE
        inline unsigned irt_max() { return read (IOAPIC_VER) >> 16 & 0xff; }
  20081c:	c1 e8 10             	shr    $0x10,%eax
  20081f:	0f b6 d8             	movzbl %al,%ebx
    unsigned max = ioapic->irt_max();

    for (unsigned short i = 0; i <= max && gsi < NUM_GSI; i++, gsi++)
  200822:	31 c0                	xor    %eax,%eax
  200824:	8d 14 38             	lea    (%eax,%edi,1),%edx
  200827:	83 fa 7f             	cmp    $0x7f,%edx
  20082a:	0f 96 c1             	setbe  %cl
  20082d:	39 d8                	cmp    %ebx,%eax
  20082f:	0f 96 c2             	setbe  %dl
  200832:	40                   	inc    %eax
  200833:	84 d1                	test   %dl,%cl
  200835:	74 0c                	je     200843 <_ZN15Acpi_table_madt12parse_ioapicEPK9Acpi_apic+0xcf>
  200837:	6b d0 0c             	imul   $0xc,%eax,%edx
        Gsi::gsi_table[gsi].ioapic = ioapic;
  20083a:	89 b4 15 d8 a4 01 c0 	mov    %esi,-0x3ffe5b28(%ebp,%edx,1)
  200841:	eb e1                	jmp    200824 <_ZN15Acpi_table_madt12parse_ioapicEPK9Acpi_apic+0xb0>
}
  200843:	5b                   	pop    %ebx
  200844:	5e                   	pop    %esi
  200845:	5f                   	pop    %edi
  200846:	5d                   	pop    %ebp
  200847:	c3                   	ret    

00200848 <_ZNK15Acpi_table_madt11parse_entryEN9Acpi_apic4TypeEPFvPKS0_E>:
        Io::out<uint8>(0x21, 0xff);
    }
}

void Acpi_table_madt::parse_entry (Acpi_apic::Type type, void (*handler)(Acpi_apic const *)) const
{
  200848:	55                   	push   %ebp
  200849:	89 cd                	mov    %ecx,%ebp
  20084b:	57                   	push   %edi
  20084c:	89 d7                	mov    %edx,%edi
  20084e:	56                   	push   %esi
  20084f:	89 c6                	mov    %eax,%esi
  200851:	53                   	push   %ebx
    for (Acpi_apic const *ptr = apic; ptr < reinterpret_cast<Acpi_apic *>(reinterpret_cast<mword>(this) + length); ptr = reinterpret_cast<Acpi_apic *>(reinterpret_cast<mword>(ptr) + ptr->length))
  200852:	8d 58 2c             	lea    0x2c(%eax),%ebx
  200855:	8b 46 04             	mov    0x4(%esi),%eax
  200858:	01 f0                	add    %esi,%eax
  20085a:	39 c3                	cmp    %eax,%ebx
  20085c:	73 13                	jae    200871 <_ZNK15Acpi_table_madt11parse_entryEN9Acpi_apic4TypeEPFvPKS0_E+0x29>
        if (ptr->type == type)
  20085e:	0f b6 03             	movzbl (%ebx),%eax
  200861:	39 f8                	cmp    %edi,%eax
  200863:	75 04                	jne    200869 <_ZNK15Acpi_table_madt11parse_entryEN9Acpi_apic4TypeEPFvPKS0_E+0x21>
            (*handler)(ptr);
  200865:	89 d8                	mov    %ebx,%eax
  200867:	ff d5                	call   *%ebp
    }
}

void Acpi_table_madt::parse_entry (Acpi_apic::Type type, void (*handler)(Acpi_apic const *)) const
{
    for (Acpi_apic const *ptr = apic; ptr < reinterpret_cast<Acpi_apic *>(reinterpret_cast<mword>(this) + length); ptr = reinterpret_cast<Acpi_apic *>(reinterpret_cast<mword>(ptr) + ptr->length))
  200869:	0f b6 43 01          	movzbl 0x1(%ebx),%eax
  20086d:	01 c3                	add    %eax,%ebx
  20086f:	eb e4                	jmp    200855 <_ZNK15Acpi_table_madt11parse_entryEN9Acpi_apic4TypeEPFvPKS0_E+0xd>
        if (ptr->type == type)
            (*handler)(ptr);
}
  200871:	5b                   	pop    %ebx
  200872:	5e                   	pop    %esi
  200873:	5f                   	pop    %edi
  200874:	5d                   	pop    %ebp
  200875:	c3                   	ret    

00200876 <_ZNK15Acpi_table_madt5parseEv>:
#include "lapic.hpp"
#include "vectors.hpp"
#include "pd.hpp"

void Acpi_table_madt::parse() const
{
  200876:	53                   	push   %ebx
    parse_entry (Acpi_apic::LAPIC,  &parse_lapic);
  200877:	31 d2                	xor    %edx,%edx
#include "lapic.hpp"
#include "vectors.hpp"
#include "pd.hpp"

void Acpi_table_madt::parse() const
{
  200879:	89 c3                	mov    %eax,%ebx
    parse_entry (Acpi_apic::LAPIC,  &parse_lapic);
  20087b:	b9 46 07 20 00       	mov    $0x200746,%ecx
  200880:	e8 c3 ff ff ff       	call   200848 <_ZNK15Acpi_table_madt11parse_entryEN9Acpi_apic4TypeEPFvPKS0_E>
    parse_entry (Acpi_apic::IOAPIC, &parse_ioapic);
  200885:	b9 74 07 20 00       	mov    $0x200774,%ecx
  20088a:	ba 01 00 00 00       	mov    $0x1,%edx
  20088f:	89 d8                	mov    %ebx,%eax
  200891:	e8 b2 ff ff ff       	call   200848 <_ZNK15Acpi_table_madt11parse_entryEN9Acpi_apic4TypeEPFvPKS0_E>
    parse_entry (Acpi_apic::INTR,   &parse_intr);
  200896:	b9 a4 06 20 00       	mov    $0x2006a4,%ecx
  20089b:	ba 02 00 00 00       	mov    $0x2,%edx
  2008a0:	89 d8                	mov    %ebx,%eax
  2008a2:	e8 a1 ff ff ff       	call   200848 <_ZNK15Acpi_table_madt11parse_entryEN9Acpi_apic4TypeEPFvPKS0_E>

    if (flags & 1) {
  2008a7:	f6 43 28 01          	testb  $0x1,0x28(%ebx)
  2008ab:	74 14                	je     2008c1 <_ZNK15Acpi_table_madt5parseEv+0x4b>
  2008ad:	b0 11                	mov    $0x11,%al
  2008af:	e6 20                	out    %al,$0x20
  2008b1:	b0 20                	mov    $0x20,%al
  2008b3:	e6 21                	out    %al,$0x21
  2008b5:	b0 04                	mov    $0x4,%al
  2008b7:	e6 21                	out    %al,$0x21
  2008b9:	b0 01                	mov    $0x1,%al
  2008bb:	e6 21                	out    %al,$0x21
  2008bd:	b0 ff                	mov    $0xff,%al
  2008bf:	e6 21                	out    %al,$0x21
        Io::out<uint8>(0x21, VEC_GSI);
        Io::out<uint8>(0x21, 0x4);
        Io::out<uint8>(0x21, 0x1);
        Io::out<uint8>(0x21, 0xff);
    }
}
  2008c1:	5b                   	pop    %ebx
  2008c2:	c3                   	ret    
  2008c3:	90                   	nop

002008c4 <_ZNK15Acpi_table_mcfg5parseEv>:

#include "acpi_mcfg.hpp"
#include "pci.hpp"

void Acpi_table_mcfg::parse() const
{
  2008c4:	53                   	push   %ebx
    for (Acpi_mcfg const *x = mcfg; x + 1 <= reinterpret_cast<Acpi_mcfg *>(reinterpret_cast<mword>(this) + length); x++)
  2008c5:	8d 50 2c             	lea    0x2c(%eax),%edx
  2008c8:	03 40 04             	add    0x4(%eax),%eax
  2008cb:	83 c2 10             	add    $0x10,%edx
  2008ce:	39 c2                	cmp    %eax,%edx
  2008d0:	77 2c                	ja     2008fe <_ZNK15Acpi_table_mcfg5parseEv+0x3a>
        if (!x->seg) {
  2008d2:	66 83 7a f8 00       	cmpw   $0x0,-0x8(%edx)
  2008d7:	75 f2                	jne    2008cb <_ZNK15Acpi_table_mcfg5parseEv+0x7>
            Pci::bus_base = x->bus_s;
  2008d9:	0f b6 5a fa          	movzbl -0x6(%edx),%ebx
  2008dd:	89 1d c8 b0 01 c0    	mov    %ebx,0xc001b0c8
            Pci::cfg_base = static_cast<Paddr>(x->addr);
  2008e3:	8b 4a f0             	mov    -0x10(%edx),%ecx
  2008e6:	89 0d c4 b0 01 c0    	mov    %ecx,0xc001b0c4
            Pci::cfg_size = ((x->bus_e - x->bus_s + 1) << 8) * PAGE_SIZE;
  2008ec:	0f b6 4a fb          	movzbl -0x5(%edx),%ecx
  2008f0:	29 d9                	sub    %ebx,%ecx
  2008f2:	41                   	inc    %ecx
  2008f3:	c1 e1 14             	shl    $0x14,%ecx
  2008f6:	89 0d c0 b0 01 c0    	mov    %ecx,0xc001b0c0
  2008fc:	eb cd                	jmp    2008cb <_ZNK15Acpi_table_mcfg5parseEv+0x7>
        }

    Pci::init();
}
  2008fe:	5b                   	pop    %ebx
            Pci::bus_base = x->bus_s;
            Pci::cfg_base = static_cast<Paddr>(x->addr);
            Pci::cfg_size = ((x->bus_e - x->bus_s + 1) << 8) * PAGE_SIZE;
        }

    Pci::init();
  2008ff:	31 d2                	xor    %edx,%edx
  200901:	31 c0                	xor    %eax,%eax
  200903:	e9 dc 0d 00 00       	jmp    2016e4 <_ZN3Pci4initEjj>

00200908 <_ZN9Acpi_rsdp4findEmj>:
#include "acpi_rsdp.hpp"
#include "hpt.hpp"
#include "pd.hpp"

Acpi_rsdp *Acpi_rsdp::find (mword start, unsigned len)
{
  200908:	56                   	push   %esi
    for (mword addr = start; addr < start + len; addr += 16) {
  200909:	01 c2                	add    %eax,%edx
#include "acpi_rsdp.hpp"
#include "hpt.hpp"
#include "pd.hpp"

Acpi_rsdp *Acpi_rsdp::find (mword start, unsigned len)
{
  20090b:	53                   	push   %ebx
    for (mword addr = start; addr < start + len; addr += 16) {
  20090c:	39 d0                	cmp    %edx,%eax
  20090e:	73 2b                	jae    20093b <_ZN9Acpi_rsdp4findEmj+0x33>
        uint8   extended_checksum;

        ALWAYS_INLINE
        bool good_signature() const
        {
            return signature[0] == SIG ('R','S','D',' ') &&
  200910:	81 38 52 53 44 20    	cmpl   $0x20445352,(%eax)
  200916:	75 1e                	jne    200936 <_ZN9Acpi_rsdp4findEmj+0x2e>
  200918:	81 78 04 50 54 52 20 	cmpl   $0x20525450,0x4(%eax)
  20091f:	75 15                	jne    200936 <_ZN9Acpi_rsdp4findEmj+0x2e>
  200921:	89 c1                	mov    %eax,%ecx
  200923:	31 db                	xor    %ebx,%ebx
        ALWAYS_INLINE
        bool good_checksum (unsigned len = 20) const
        {
            uint8 check = 0;
            for (uint8 const *ptr = reinterpret_cast<uint8 const *>(this);
                              ptr < reinterpret_cast<uint8 const *>(this) + len;
  200925:	8d 70 14             	lea    0x14(%eax),%esi

        ALWAYS_INLINE
        bool good_checksum (unsigned len = 20) const
        {
            uint8 check = 0;
            for (uint8 const *ptr = reinterpret_cast<uint8 const *>(this);
  200928:	39 f1                	cmp    %esi,%ecx
  20092a:	73 06                	jae    200932 <_ZN9Acpi_rsdp4findEmj+0x2a>
  20092c:	41                   	inc    %ecx
  20092d:	02 59 ff             	add    -0x1(%ecx),%bl
  200930:	eb f6                	jmp    200928 <_ZN9Acpi_rsdp4findEmj+0x20>
        Acpi_rsdp *rsdp = reinterpret_cast<Acpi_rsdp *>(addr);
        if (rsdp->good_signature() && rsdp->good_checksum())
  200932:	84 db                	test   %bl,%bl
  200934:	74 07                	je     20093d <_ZN9Acpi_rsdp4findEmj+0x35>
#include "hpt.hpp"
#include "pd.hpp"

Acpi_rsdp *Acpi_rsdp::find (mword start, unsigned len)
{
    for (mword addr = start; addr < start + len; addr += 16) {
  200936:	83 c0 10             	add    $0x10,%eax
  200939:	eb d1                	jmp    20090c <_ZN9Acpi_rsdp4findEmj+0x4>
        Acpi_rsdp *rsdp = reinterpret_cast<Acpi_rsdp *>(addr);
        if (rsdp->good_signature() && rsdp->good_checksum())
            return rsdp;
    }

    return nullptr;
  20093b:	31 c0                	xor    %eax,%eax
}
  20093d:	5b                   	pop    %ebx
  20093e:	5e                   	pop    %esi
  20093f:	c3                   	ret    

00200940 <_ZN9Acpi_rsdp5parseEv>:

void Acpi_rsdp::parse()
{
  200940:	53                   	push   %ebx
    Acpi_rsdp *rsdp;

    mword map = reinterpret_cast<mword>(Hpt::remap (Pd::kern.quota, 0));
  200941:	31 d2                	xor    %edx,%edx
  200943:	b8 50 b4 01 c0       	mov    $0xc001b450,%eax
  200948:	e8 a1 52 e0 bf       	call   c0005bee <_ZN3Hpt5remapER5Quotam>

    if (!(rsdp = Acpi_rsdp::find (map + (*reinterpret_cast<uint16 *>(map + 0x40e) << 4), 0x400)) &&
  20094d:	ba 00 04 00 00       	mov    $0x400,%edx

void Acpi_rsdp::parse()
{
    Acpi_rsdp *rsdp;

    mword map = reinterpret_cast<mword>(Hpt::remap (Pd::kern.quota, 0));
  200952:	89 c3                	mov    %eax,%ebx

    if (!(rsdp = Acpi_rsdp::find (map + (*reinterpret_cast<uint16 *>(map + 0x40e) << 4), 0x400)) &&
  200954:	0f b7 80 0e 04 00 00 	movzwl 0x40e(%eax),%eax
  20095b:	c1 e0 04             	shl    $0x4,%eax
  20095e:	01 d8                	add    %ebx,%eax
  200960:	e8 a3 ff ff ff       	call   200908 <_ZN9Acpi_rsdp4findEmj>
  200965:	85 c0                	test   %eax,%eax
  200967:	89 c2                	mov    %eax,%edx
  200969:	75 16                	jne    200981 <_ZN9Acpi_rsdp5parseEv+0x41>
  20096b:	ba 00 00 02 00       	mov    $0x20000,%edx
        !(rsdp = Acpi_rsdp::find (map + 0xe0000, 0x20000)))
  200970:	8d 83 00 00 0e 00    	lea    0xe0000(%ebx),%eax
{
    Acpi_rsdp *rsdp;

    mword map = reinterpret_cast<mword>(Hpt::remap (Pd::kern.quota, 0));

    if (!(rsdp = Acpi_rsdp::find (map + (*reinterpret_cast<uint16 *>(map + 0x40e) << 4), 0x400)) &&
  200976:	e8 8d ff ff ff       	call   200908 <_ZN9Acpi_rsdp4findEmj>
  20097b:	85 c0                	test   %eax,%eax
  20097d:	89 c2                	mov    %eax,%edx
  20097f:	74 2d                	je     2009ae <_ZN9Acpi_rsdp5parseEv+0x6e>
        !(rsdp = Acpi_rsdp::find (map + 0xe0000, 0x20000)))
        return;

    Acpi::rsdt = rsdp->rsdt_addr;
  200981:	8b 42 10             	mov    0x10(%edx),%eax

    if (rsdp->revision > 1 && rsdp->good_checksum (rsdp->length))
  200984:	80 7a 0f 01          	cmpb   $0x1,0xf(%edx)

    if (!(rsdp = Acpi_rsdp::find (map + (*reinterpret_cast<uint16 *>(map + 0x40e) << 4), 0x400)) &&
        !(rsdp = Acpi_rsdp::find (map + 0xe0000, 0x20000)))
        return;

    Acpi::rsdt = rsdp->rsdt_addr;
  200988:	a3 38 a3 01 c0       	mov    %eax,0xc001a338

    if (rsdp->revision > 1 && rsdp->good_checksum (rsdp->length))
  20098d:	76 1f                	jbe    2009ae <_ZN9Acpi_rsdp5parseEv+0x6e>
                              ptr < reinterpret_cast<uint8 const *>(this) + len;
  20098f:	8b 5a 14             	mov    0x14(%edx),%ebx
  200992:	89 d0                	mov    %edx,%eax
        }

        ALWAYS_INLINE
        bool good_checksum (unsigned len = 20) const
        {
            uint8 check = 0;
  200994:	31 c9                	xor    %ecx,%ecx
            for (uint8 const *ptr = reinterpret_cast<uint8 const *>(this);
                              ptr < reinterpret_cast<uint8 const *>(this) + len;
  200996:	01 d3                	add    %edx,%ebx

        ALWAYS_INLINE
        bool good_checksum (unsigned len = 20) const
        {
            uint8 check = 0;
            for (uint8 const *ptr = reinterpret_cast<uint8 const *>(this);
  200998:	39 d8                	cmp    %ebx,%eax
  20099a:	73 06                	jae    2009a2 <_ZN9Acpi_rsdp5parseEv+0x62>
  20099c:	40                   	inc    %eax
  20099d:	02 48 ff             	add    -0x1(%eax),%cl
  2009a0:	eb f6                	jmp    200998 <_ZN9Acpi_rsdp5parseEv+0x58>
  2009a2:	84 c9                	test   %cl,%cl
  2009a4:	75 08                	jne    2009ae <_ZN9Acpi_rsdp5parseEv+0x6e>
        Acpi::xsdt = static_cast<Paddr>(rsdp->xsdt_addr);
  2009a6:	8b 42 18             	mov    0x18(%edx),%eax
  2009a9:	a3 34 a3 01 c0       	mov    %eax,0xc001a334
}
  2009ae:	5b                   	pop    %ebx
  2009af:	c3                   	ret    

002009b0 <_ZNK15Acpi_table_rsdt5parseEmj>:
    { SIG ('H','P','E','T'),    &Acpi::hpet },
    { SIG ('M','C','F','G'),    &Acpi::mcfg },
};

void Acpi_table_rsdt::parse (Paddr addr, size_t size) const
{
  2009b0:	55                   	push   %ebp
  2009b1:	89 e5                	mov    %esp,%ebp
  2009b3:	57                   	push   %edi
  2009b4:	56                   	push   %esi
  2009b5:	89 ce                	mov    %ecx,%esi
  2009b7:	53                   	push   %ebx
  2009b8:	89 c3                	mov    %eax,%ebx
  2009ba:	83 ec 0c             	sub    $0xc,%esp
  2009bd:	89 65 ec             	mov    %esp,-0x14(%ebp)
    if (!good_checksum (addr))
  2009c0:	e8 8b 00 00 00       	call   200a50 <_ZNK10Acpi_table13good_checksumEm>
  2009c5:	84 c0                	test   %al,%al
  2009c7:	74 7f                	je     200a48 <_ZNK15Acpi_table_rsdt5parseEmj+0x98>
            Paddr * const ptr;
        } map[];

        unsigned long entries (size_t size) const
        {
            return (length - sizeof (Acpi_table)) / size;
  2009c9:	8b 43 04             	mov    0x4(%ebx),%eax
  2009cc:	31 d2                	xor    %edx,%edx
  2009ce:	83 e8 24             	sub    $0x24,%eax
  2009d1:	f7 f6                	div    %esi
  2009d3:	89 45 f0             	mov    %eax,-0x10(%ebp)
        return;

    unsigned long count = entries (size);

    Paddr table[count];
  2009d6:	8d 04 85 04 00 00 00 	lea    0x4(,%eax,4),%eax
  2009dd:	29 c4                	sub    %eax,%esp
    for (unsigned i = 0; i < count; i++)
  2009df:	31 c0                	xor    %eax,%eax
    if (!good_checksum (addr))
        return;

    unsigned long count = entries (size);

    Paddr table[count];
  2009e1:	89 e7                	mov    %esp,%edi
    for (unsigned i = 0; i < count; i++)
  2009e3:	3b 45 f0             	cmp    -0x10(%ebp),%eax
  2009e6:	74 15                	je     2009fd <_ZNK15Acpi_table_rsdt5parseEmj+0x4d>
        table[i] = static_cast<Paddr>(size == sizeof (*xsdt) ? xsdt[i] : rsdt[i]);
  2009e8:	83 fe 08             	cmp    $0x8,%esi
  2009eb:	75 06                	jne    2009f3 <_ZNK15Acpi_table_rsdt5parseEmj+0x43>
  2009ed:	8b 54 c3 24          	mov    0x24(%ebx,%eax,8),%edx
  2009f1:	eb 04                	jmp    2009f7 <_ZNK15Acpi_table_rsdt5parseEmj+0x47>
  2009f3:	8b 54 83 24          	mov    0x24(%ebx,%eax,4),%edx
  2009f7:	89 14 87             	mov    %edx,(%edi,%eax,4)
        return;

    unsigned long count = entries (size);

    Paddr table[count];
    for (unsigned i = 0; i < count; i++)
  2009fa:	40                   	inc    %eax
  2009fb:	eb e6                	jmp    2009e3 <_ZNK15Acpi_table_rsdt5parseEmj+0x33>
  2009fd:	31 db                	xor    %ebx,%ebx
        table[i] = static_cast<Paddr>(size == sizeof (*xsdt) ? xsdt[i] : rsdt[i]);

    for (unsigned i = 0; i < count; i++) {
  2009ff:	3b 5d f0             	cmp    -0x10(%ebp),%ebx
  200a02:	74 41                	je     200a45 <_ZNK15Acpi_table_rsdt5parseEmj+0x95>

        Acpi_table *acpi = static_cast<Acpi_table *>(Hpt::remap (Pd::kern.quota, table[i]));
  200a04:	8b 34 9f             	mov    (%edi,%ebx,4),%esi
  200a07:	b8 50 b4 01 c0       	mov    $0xc001b450,%eax
  200a0c:	89 f2                	mov    %esi,%edx
  200a0e:	e8 db 51 e0 bf       	call   c0005bee <_ZN3Hpt5remapER5Quotam>

        if (acpi->good_checksum (table[i]))
  200a13:	89 f2                	mov    %esi,%edx
    for (unsigned i = 0; i < count; i++)
        table[i] = static_cast<Paddr>(size == sizeof (*xsdt) ? xsdt[i] : rsdt[i]);

    for (unsigned i = 0; i < count; i++) {

        Acpi_table *acpi = static_cast<Acpi_table *>(Hpt::remap (Pd::kern.quota, table[i]));
  200a15:	89 c1                	mov    %eax,%ecx

        if (acpi->good_checksum (table[i]))
  200a17:	89 4d e8             	mov    %ecx,-0x18(%ebp)
  200a1a:	e8 31 00 00 00       	call   200a50 <_ZNK10Acpi_table13good_checksumEm>
  200a1f:	8b 4d e8             	mov    -0x18(%ebp),%ecx
  200a22:	84 c0                	test   %al,%al
  200a24:	74 1c                	je     200a42 <_ZNK15Acpi_table_rsdt5parseEmj+0x92>
  200a26:	31 c0                	xor    %eax,%eax
            for (unsigned j = 0; j < sizeof map / sizeof *map; j++)
                if (acpi->signature == map[j].sig)
  200a28:	8b 14 c5 80 1b 20 00 	mov    0x201b80(,%eax,8),%edx
  200a2f:	39 11                	cmp    %edx,(%ecx)
  200a31:	75 09                	jne    200a3c <_ZNK15Acpi_table_rsdt5parseEmj+0x8c>
                    *map[j].ptr = table[i];
  200a33:	8b 14 c5 84 1b 20 00 	mov    0x201b84(,%eax,8),%edx
  200a3a:	89 32                	mov    %esi,(%edx)
    for (unsigned i = 0; i < count; i++) {

        Acpi_table *acpi = static_cast<Acpi_table *>(Hpt::remap (Pd::kern.quota, table[i]));

        if (acpi->good_checksum (table[i]))
            for (unsigned j = 0; j < sizeof map / sizeof *map; j++)
  200a3c:	40                   	inc    %eax
  200a3d:	83 f8 05             	cmp    $0x5,%eax
  200a40:	75 e6                	jne    200a28 <_ZNK15Acpi_table_rsdt5parseEmj+0x78>

    Paddr table[count];
    for (unsigned i = 0; i < count; i++)
        table[i] = static_cast<Paddr>(size == sizeof (*xsdt) ? xsdt[i] : rsdt[i]);

    for (unsigned i = 0; i < count; i++) {
  200a42:	43                   	inc    %ebx
  200a43:	eb ba                	jmp    2009ff <_ZNK15Acpi_table_rsdt5parseEmj+0x4f>
  200a45:	8b 65 ec             	mov    -0x14(%ebp),%esp
        if (acpi->good_checksum (table[i]))
            for (unsigned j = 0; j < sizeof map / sizeof *map; j++)
                if (acpi->signature == map[j].sig)
                    *map[j].ptr = table[i];
    }
}
  200a48:	8d 65 f4             	lea    -0xc(%ebp),%esp
  200a4b:	5b                   	pop    %ebx
  200a4c:	5e                   	pop    %esi
  200a4d:	5f                   	pop    %edi
  200a4e:	5d                   	pop    %ebp
  200a4f:	c3                   	ret    

00200a50 <_ZNK10Acpi_table13good_checksumEm>:
bool Acpi_table::good_checksum (Paddr addr) const
{
    uint8 check = 0;

    for (uint8 const *ptr = reinterpret_cast<uint8 const *>(this);
                      ptr < reinterpret_cast<uint8 const *>(this) + length;
  200a50:	8b 48 04             	mov    0x4(%eax),%ecx
#include "acpi_table.hpp"
#include "stdio.hpp"

bool Acpi_table::good_checksum (Paddr addr) const
{
    uint8 check = 0;
  200a53:	31 d2                	xor    %edx,%edx

    for (uint8 const *ptr = reinterpret_cast<uint8 const *>(this);
                      ptr < reinterpret_cast<uint8 const *>(this) + length;
  200a55:	01 c1                	add    %eax,%ecx

bool Acpi_table::good_checksum (Paddr addr) const
{
    uint8 check = 0;

    for (uint8 const *ptr = reinterpret_cast<uint8 const *>(this);
  200a57:	39 c8                	cmp    %ecx,%eax
  200a59:	73 06                	jae    200a61 <_ZNK10Acpi_table13good_checksumEm+0x11>
  200a5b:	40                   	inc    %eax
  200a5c:	02 50 ff             	add    -0x1(%eax),%dl
  200a5f:	eb f6                	jmp    200a57 <_ZNK10Acpi_table13good_checksumEm+0x7>
           oem_id,
           length,
           check ? "bad" : "ok",
           static_cast<unsigned int>(checksum));

    return !check;
  200a61:	84 d2                	test   %dl,%dl
  200a63:	0f 94 c0             	sete   %al
}
  200a66:	c3                   	ret    
  200a67:	90                   	nop

00200a68 <_ZN5BuddyC1Emmmj>:
                        reinterpret_cast<mword>(&_mempool_l),
                        reinterpret_cast<mword>(&_mempool_f),
                        reinterpret_cast<mword>(&_mempool_e) -
                        reinterpret_cast<mword>(&_mempool_l));

Buddy::Buddy (mword phys, mword virt, mword f_addr, size_t size)
  200a68:	55                   	push   %ebp
  200a69:	57                   	push   %edi
  200a6a:	89 cf                	mov    %ecx,%edi
  200a6c:	56                   	push   %esi

ALWAYS_INLINE
inline long int bit_scan_reverse (mword val)
{
    if (EXPECT_FALSE (!val))
        return -1;
  200a6d:	83 c9 ff             	or     $0xffffffff,%ecx
  200a70:	53                   	push   %ebx
  200a71:	89 c6                	mov    %eax,%esi
  200a73:	8b 5c 24 18          	mov    0x18(%esp),%ebx
    private:
        uint16 val;

    public:
        ALWAYS_INLINE
        inline Spinlock() : val (0) {}
  200a77:	66 c7 00 00 00       	movw   $0x0,(%eax)
#include "util.hpp"

ALWAYS_INLINE
inline long int bit_scan_reverse (mword val)
{
    if (EXPECT_FALSE (!val))
  200a7c:	85 db                	test   %ebx,%ebx
  200a7e:	74 03                	je     200a83 <_ZN5BuddyC1Emmmj+0x1b>
        return -1;

    asm volatile ("bsr %1, %0" : "=r" (val) : "rm" (val));

    return val;
  200a80:	0f bd cb             	bsr    %ebx,%ecx
{
    // Compute maximum aligned block size
    unsigned long bit = bit_scan_reverse (size);

    // Compute maximum aligned physical block address (base)
    base = phys_to_virt (align_up (phys, 1ul << bit));
  200a83:	b8 01 00 00 00       	mov    $0x1,%eax
  200a88:	d3 e0                	shl    %cl,%eax

    // Convert block size to page order
    order = bit + 1 - PAGE_BITS;
  200a8a:	83 e9 0b             	sub    $0xb,%ecx
  200a8d:	89 4e 10             	mov    %ecx,0x10(%esi)
           phys,
           phys + size,
           order);

    // Allocate block-list heads
    size -= order * sizeof *head;
  200a90:	6b c9 0c             	imul   $0xc,%ecx,%ecx
}

ALWAYS_INLINE
static inline mword align_dn (mword val, mword align)
{
    val &= ~(align - 1);                // Expect power-of-2
  200a93:	89 c5                	mov    %eax,%ebp
  200a95:	f7 dd                	neg    %ebp
}

ALWAYS_INLINE
static inline mword align_up (mword val, mword align)
{
    val += (align - 1);                 // Expect power-of-2
  200a97:	8d 44 10 ff          	lea    -0x1(%eax,%edx,1),%eax
    head = reinterpret_cast<Block *>(virt + size);

    // Allocate block-index storage
    size -= size / (PAGE_SIZE + sizeof *index) * sizeof *index;
  200a9b:	31 d2                	xor    %edx,%edx
}

ALWAYS_INLINE
static inline mword align_dn (mword val, mword align)
{
    val &= ~(align - 1);                // Expect power-of-2
  200a9d:	21 c5                	and    %eax,%ebp
           phys,
           phys + size,
           order);

    // Allocate block-list heads
    size -= order * sizeof *head;
  200a9f:	29 cb                	sub    %ecx,%ebx
    head = reinterpret_cast<Block *>(virt + size);

    // Allocate block-index storage
    size -= size / (PAGE_SIZE + sizeof *index) * sizeof *index;
  200aa1:	b9 0c 10 00 00       	mov    $0x100c,%ecx
           phys + size,
           order);

    // Allocate block-list heads
    size -= order * sizeof *head;
    head = reinterpret_cast<Block *>(virt + size);
  200aa6:	8d 04 3b             	lea    (%ebx,%edi,1),%eax
        }

        ALWAYS_INLINE
        inline mword phys_to_virt (mword phys)
        {
            return phys + reinterpret_cast<mword>(&OFFSET);
  200aa9:	81 c5 00 00 c0 bf    	add    $0xbfc00000,%ebp
  200aaf:	89 46 18             	mov    %eax,0x18(%esi)

    // Allocate block-index storage
    size -= size / (PAGE_SIZE + sizeof *index) * sizeof *index;
  200ab2:	89 d8                	mov    %ebx,%eax
  200ab4:	f7 f1                	div    %ecx
{
    // Compute maximum aligned block size
    unsigned long bit = bit_scan_reverse (size);

    // Compute maximum aligned physical block address (base)
    base = phys_to_virt (align_up (phys, 1ul << bit));
  200ab6:	89 6e 0c             	mov    %ebp,0xc(%esi)
        }

        ALWAYS_INLINE
        inline signed long page_to_index (mword l_addr)
        {
            return l_addr / PAGE_SIZE - base / PAGE_SIZE;
  200ab9:	c1 ed 0c             	shr    $0xc,%ebp
    // Allocate block-list heads
    size -= order * sizeof *head;
    head = reinterpret_cast<Block *>(virt + size);

    // Allocate block-index storage
    size -= size / (PAGE_SIZE + sizeof *index) * sizeof *index;
  200abc:	6b c0 0c             	imul   $0xc,%eax,%eax
  200abf:	29 c3                	sub    %eax,%ebx
  200ac1:	89 f8                	mov    %edi,%eax
  200ac3:	c1 e8 0c             	shr    $0xc,%eax
    size &= ~PAGE_MASK;
  200ac6:	81 e3 00 f0 ff ff    	and    $0xfffff000,%ebx
  200acc:	29 e8                	sub    %ebp,%eax
    min_idx = page_to_index (virt);
    max_idx = page_to_index (virt + size);
  200ace:	01 df                	add    %ebx,%edi
    head = reinterpret_cast<Block *>(virt + size);

    // Allocate block-index storage
    size -= size / (PAGE_SIZE + sizeof *index) * sizeof *index;
    size &= ~PAGE_MASK;
    min_idx = page_to_index (virt);
  200ad0:	89 46 08             	mov    %eax,0x8(%esi)
    max_idx = page_to_index (virt + size);
    index = reinterpret_cast<Block *>(virt + size) - min_idx;
  200ad3:	6b c0 0c             	imul   $0xc,%eax,%eax
  200ad6:	89 fa                	mov    %edi,%edx
  200ad8:	c1 ea 0c             	shr    $0xc,%edx
  200adb:	89 fb                	mov    %edi,%ebx
  200add:	29 ea                	sub    %ebp,%edx
  200adf:	89 56 04             	mov    %edx,0x4(%esi)

    for (unsigned i = 0; i < order; i++)
  200ae2:	31 d2                	xor    %edx,%edx
    // Allocate block-index storage
    size -= size / (PAGE_SIZE + sizeof *index) * sizeof *index;
    size &= ~PAGE_MASK;
    min_idx = page_to_index (virt);
    max_idx = page_to_index (virt + size);
    index = reinterpret_cast<Block *>(virt + size) - min_idx;
  200ae4:	29 c3                	sub    %eax,%ebx
  200ae6:	89 5e 14             	mov    %ebx,0x14(%esi)

    for (unsigned i = 0; i < order; i++)
  200ae9:	3b 56 10             	cmp    0x10(%esi),%edx
  200aec:	73 0e                	jae    200afc <_ZN5BuddyC1Emmmj+0x94>
        head[i].next = head[i].prev = head + i;
  200aee:	6b c2 0c             	imul   $0xc,%edx,%eax
    size &= ~PAGE_MASK;
    min_idx = page_to_index (virt);
    max_idx = page_to_index (virt + size);
    index = reinterpret_cast<Block *>(virt + size) - min_idx;

    for (unsigned i = 0; i < order; i++)
  200af1:	42                   	inc    %edx
        head[i].next = head[i].prev = head + i;
  200af2:	03 46 18             	add    0x18(%esi),%eax
  200af5:	89 00                	mov    %eax,(%eax)
  200af7:	89 40 04             	mov    %eax,0x4(%eax)
  200afa:	eb ed                	jmp    200ae9 <_ZN5BuddyC1Emmmj+0x81>

    for (mword i = f_addr; i < virt + size; i += PAGE_SIZE)
  200afc:	39 7c 24 14          	cmp    %edi,0x14(%esp)
  200b00:	73 1a                	jae    200b1c <_ZN5BuddyC1Emmmj+0xb4>
        free (i, Quota::init);
  200b02:	8b 54 24 14          	mov    0x14(%esp),%edx
  200b06:	b9 70 a3 01 c0       	mov    $0xc001a370,%ecx
  200b0b:	89 f0                	mov    %esi,%eax
  200b0d:	e8 56 06 e0 bf       	call   c0001168 <_ZN5Buddy4freeEmR5Quota>
    index = reinterpret_cast<Block *>(virt + size) - min_idx;

    for (unsigned i = 0; i < order; i++)
        head[i].next = head[i].prev = head + i;

    for (mword i = f_addr; i < virt + size; i += PAGE_SIZE)
  200b12:	81 44 24 14 00 10 00 	addl   $0x1000,0x14(%esp)
  200b19:	00 
  200b1a:	eb e0                	jmp    200afc <_ZN5BuddyC1Emmmj+0x94>
        free (i, Quota::init);
}
  200b1c:	5b                   	pop    %ebx
  200b1d:	5e                   	pop    %esi
  200b1e:	5f                   	pop    %edi
  200b1f:	5d                   	pop    %ebp
  200b20:	c3                   	ret    
  200b21:	90                   	nop

00200b22 <_ZN7Cmdline7get_argEPPc>:
    { "novga",      &Cmdline::novga     },
    { "novpid",     &Cmdline::novpid    },
};

char *Cmdline::get_arg (char **line)
{
  200b22:	53                   	push   %ebx
  200b23:	89 c3                	mov    %eax,%ebx
    for (; **line == ' '; ++*line) ;
  200b25:	8b 13                	mov    (%ebx),%edx
  200b27:	8a 0a                	mov    (%edx),%cl
  200b29:	80 f9 20             	cmp    $0x20,%cl
  200b2c:	75 05                	jne    200b33 <_ZN7Cmdline7get_argEPPc+0x11>
  200b2e:	42                   	inc    %edx
  200b2f:	89 13                	mov    %edx,(%ebx)
  200b31:	eb f2                	jmp    200b25 <_ZN7Cmdline7get_argEPPc+0x3>

    if (!**line)
        return nullptr;
  200b33:	31 c0                	xor    %eax,%eax

char *Cmdline::get_arg (char **line)
{
    for (; **line == ' '; ++*line) ;

    if (!**line)
  200b35:	84 c9                	test   %cl,%cl
  200b37:	74 1b                	je     200b54 <_ZN7Cmdline7get_argEPPc+0x32>
        return nullptr;

    char *arg = *line;

    for (; **line != ' '; ++*line)
  200b39:	8b 0b                	mov    (%ebx),%ecx
  200b3b:	8a 01                	mov    (%ecx),%al
  200b3d:	3c 20                	cmp    $0x20,%al
  200b3f:	74 09                	je     200b4a <_ZN7Cmdline7get_argEPPc+0x28>
        if (!**line)
  200b41:	84 c0                	test   %al,%al
  200b43:	74 0d                	je     200b52 <_ZN7Cmdline7get_argEPPc+0x30>
    if (!**line)
        return nullptr;

    char *arg = *line;

    for (; **line != ' '; ++*line)
  200b45:	41                   	inc    %ecx
  200b46:	89 0b                	mov    %ecx,(%ebx)
  200b48:	eb ef                	jmp    200b39 <_ZN7Cmdline7get_argEPPc+0x17>
        if (!**line)
            return arg;

    *(*line)++ = 0;
  200b4a:	8d 41 01             	lea    0x1(%ecx),%eax
  200b4d:	89 03                	mov    %eax,(%ebx)
  200b4f:	c6 01 00             	movb   $0x0,(%ecx)
    { "novpid",     &Cmdline::novpid    },
};

char *Cmdline::get_arg (char **line)
{
    for (; **line == ' '; ++*line) ;
  200b52:	89 d0                	mov    %edx,%eax
            return arg;

    *(*line)++ = 0;

    return arg;
}
  200b54:	5b                   	pop    %ebx
  200b55:	c3                   	ret    

00200b56 <_ZN7Cmdline4initEm>:

void Cmdline::init (mword addr)
{
  200b56:	56                   	push   %esi
  200b57:	53                   	push   %ebx
  200b58:	52                   	push   %edx
    char *arg, *line = static_cast<char *>(Hpt::remap (Pd::kern.quota, addr));
  200b59:	89 c2                	mov    %eax,%edx
  200b5b:	b8 50 b4 01 c0       	mov    $0xc001b450,%eax
  200b60:	e8 89 50 e0 bf       	call   c0005bee <_ZN3Hpt5remapER5Quotam>
  200b65:	89 04 24             	mov    %eax,(%esp)

    while ((arg = get_arg (&line)))
  200b68:	89 e0                	mov    %esp,%eax
  200b6a:	e8 b3 ff ff ff       	call   200b22 <_ZN7Cmdline7get_argEPPc>
  200b6f:	85 c0                	test   %eax,%eax
  200b71:	74 2f                	je     200ba2 <_ZN7Cmdline4initEm+0x4c>
  200b73:	31 d2                	xor    %edx,%edx
        for (unsigned i = 0; i < sizeof map / sizeof *map; i++)
            if (!strcmp (map[i].arg, arg))
  200b75:	8b 34 d5 c0 1b 20 00 	mov    0x201bc0(,%edx,8),%esi
  200b7c:	89 c1                	mov    %eax,%ecx
}

extern "C" NONNULL
inline int strcmp (char const *s1, char const *s2)
{
    while (*s1 && *s1 == *s2)
  200b7e:	8a 1e                	mov    (%esi),%bl
  200b80:	84 db                	test   %bl,%bl
  200b82:	74 08                	je     200b8c <_ZN7Cmdline4initEm+0x36>
  200b84:	3a 19                	cmp    (%ecx),%bl
  200b86:	75 04                	jne    200b8c <_ZN7Cmdline4initEm+0x36>
        s1++, s2++;
  200b88:	46                   	inc    %esi
  200b89:	41                   	inc    %ecx
  200b8a:	eb f2                	jmp    200b7e <_ZN7Cmdline4initEm+0x28>
  200b8c:	3a 19                	cmp    (%ecx),%bl
  200b8e:	75 0a                	jne    200b9a <_ZN7Cmdline4initEm+0x44>
                *map[i].ptr = true;
  200b90:	8b 0c d5 c4 1b 20 00 	mov    0x201bc4(,%edx,8),%ecx
  200b97:	c6 01 01             	movb   $0x1,(%ecx)
void Cmdline::init (mword addr)
{
    char *arg, *line = static_cast<char *>(Hpt::remap (Pd::kern.quota, addr));

    while ((arg = get_arg (&line)))
        for (unsigned i = 0; i < sizeof map / sizeof *map; i++)
  200b9a:	42                   	inc    %edx
  200b9b:	83 fa 09             	cmp    $0x9,%edx
  200b9e:	75 d5                	jne    200b75 <_ZN7Cmdline4initEm+0x1f>
  200ba0:	eb c6                	jmp    200b68 <_ZN7Cmdline4initEm+0x12>
            if (!strcmp (map[i].arg, arg))
                *map[i].ptr = true;
}
  200ba2:	58                   	pop    %eax
  200ba3:	5b                   	pop    %ebx
  200ba4:	5e                   	pop    %esi
  200ba5:	c3                   	ret    

00200ba6 <_ZN14Console_serialC1Ev>:
#include "x86.hpp"
#include "pd.hpp"

INIT_PRIORITY (PRIO_CONSOLE) Console_serial Console_serial::con;

Console_serial::Console_serial()
  200ba6:	c7 00 10 66 01 c0    	movl   $0xc0016610,(%eax)
{
    if (!Cmdline::serial)
  200bac:	80 3d 8a a3 01 c0 00 	cmpb   $0x0,0xc001a38a
  200bb3:	74 6d                	je     200c22 <_ZN14Console_serialC1Ev+0x7c>
#include "x86.hpp"
#include "pd.hpp"

INIT_PRIORITY (PRIO_CONSOLE) Console_serial Console_serial::con;

Console_serial::Console_serial()
  200bb5:	55                   	push   %ebp
{
    if (!Cmdline::serial)
        return;

    char *mem = static_cast<char *>(Hpt::remap (Pd::kern.quota, 0));
  200bb6:	31 d2                	xor    %edx,%edx
#include "x86.hpp"
#include "pd.hpp"

INIT_PRIORITY (PRIO_CONSOLE) Console_serial Console_serial::con;

Console_serial::Console_serial()
  200bb8:	57                   	push   %edi
  200bb9:	56                   	push   %esi
  200bba:	53                   	push   %ebx
  200bbb:	89 c3                	mov    %eax,%ebx
{
    if (!Cmdline::serial)
        return;

    char *mem = static_cast<char *>(Hpt::remap (Pd::kern.quota, 0));
  200bbd:	b8 50 b4 01 c0       	mov    $0xc001b450,%eax
  200bc2:	e8 27 50 e0 bf       	call   c0005bee <_ZN3Hpt5remapER5Quotam>
    if (!(base = *reinterpret_cast<uint16 *>(mem + 0x400)) &&
  200bc7:	0f b7 90 00 04 00 00 	movzwl 0x400(%eax),%edx
  200bce:	85 d2                	test   %edx,%edx
  200bd0:	89 53 08             	mov    %edx,0x8(%ebx)
  200bd3:	75 0e                	jne    200be3 <_ZN14Console_serialC1Ev+0x3d>
        !(base = *reinterpret_cast<uint16 *>(mem + 0x402)))
  200bd5:	0f b7 80 02 04 00 00 	movzwl 0x402(%eax),%eax
{
    if (!Cmdline::serial)
        return;

    char *mem = static_cast<char *>(Hpt::remap (Pd::kern.quota, 0));
    if (!(base = *reinterpret_cast<uint16 *>(mem + 0x400)) &&
  200bdc:	85 c0                	test   %eax,%eax
  200bde:	89 43 08             	mov    %eax,0x8(%ebx)
  200be1:	74 3b                	je     200c1e <_ZN14Console_serialC1Ev+0x78>
  200be3:	8b 73 08             	mov    0x8(%ebx),%esi
  200be6:	b0 80                	mov    $0x80,%al

        ALWAYS_INLINE
        inline unsigned in (Register r) { return Io::in<uint8>(base + r); }

        ALWAYS_INLINE
        inline void out (Register r, unsigned v) { Io::out (base + r, static_cast<uint8>(v)); }
  200be8:	8d 6e 03             	lea    0x3(%esi),%ebp
  200beb:	89 ea                	mov    %ebp,%edx
  200bed:	ee                   	out    %al,(%dx)
  200bee:	b0 01                	mov    $0x1,%al
  200bf0:	89 f2                	mov    %esi,%edx
  200bf2:	ee                   	out    %al,(%dx)
  200bf3:	31 c9                	xor    %ecx,%ecx
  200bf5:	8d 7e 01             	lea    0x1(%esi),%edi
  200bf8:	88 c8                	mov    %cl,%al
  200bfa:	89 fa                	mov    %edi,%edx
  200bfc:	ee                   	out    %al,(%dx)
  200bfd:	b0 03                	mov    $0x3,%al
  200bff:	89 ea                	mov    %ebp,%edx
  200c01:	ee                   	out    %al,(%dx)
  200c02:	88 c8                	mov    %cl,%al
  200c04:	89 fa                	mov    %edi,%edx
  200c06:	ee                   	out    %al,(%dx)
  200c07:	b0 07                	mov    $0x7,%al
  200c09:	8d 56 02             	lea    0x2(%esi),%edx
  200c0c:	ee                   	out    %al,(%dx)
  200c0d:	b0 03                	mov    $0x3,%al
  200c0f:	8d 56 04             	lea    0x4(%esi),%edx
  200c12:	ee                   	out    %al,(%dx)
    out (LCR, 3);
    out (IER, 0);
    out (FCR, 7);
    out (MCR, 3);

    enable();
  200c13:	89 d8                	mov    %ebx,%eax
}
  200c15:	5b                   	pop    %ebx
  200c16:	5e                   	pop    %esi
  200c17:	5f                   	pop    %edi
  200c18:	5d                   	pop    %ebp
    out (LCR, 3);
    out (IER, 0);
    out (FCR, 7);
    out (MCR, 3);

    enable();
  200c19:	e9 90 0e e0 bf       	jmp    c0001aae <_ZN7Console6enableEv>
}
  200c1e:	5b                   	pop    %ebx
  200c1f:	5e                   	pop    %esi
  200c20:	5f                   	pop    %edi
  200c21:	5d                   	pop    %ebp
  200c22:	c3                   	ret    
  200c23:	90                   	nop

00200c24 <_ZN11Console_vgaC1Ev>:
#include "console_vga.hpp"
#include "pd.hpp"

INIT_PRIORITY (PRIO_CONSOLE) Console_vga Console_vga::con;

Console_vga::Console_vga() : num (25), row (0), col (0)
  200c24:	c7 00 30 66 01 c0    	movl   $0xc0016630,(%eax)
{
    if (Cmdline::novga)
  200c2a:	80 3d 85 a3 01 c0 00 	cmpb   $0x0,0xc001a385
#include "console_vga.hpp"
#include "pd.hpp"

INIT_PRIORITY (PRIO_CONSOLE) Console_vga Console_vga::con;

Console_vga::Console_vga() : num (25), row (0), col (0)
  200c31:	c7 40 08 19 00 00 00 	movl   $0x19,0x8(%eax)
  200c38:	c7 40 0c 00 00 00 00 	movl   $0x0,0xc(%eax)
  200c3f:	c7 40 10 00 00 00 00 	movl   $0x0,0x10(%eax)
{
    if (Cmdline::novga)
  200c46:	75 50                	jne    200c98 <_ZN11Console_vgaC1Ev+0x74>
#include "console_vga.hpp"
#include "pd.hpp"

INIT_PRIORITY (PRIO_CONSOLE) Console_vga Console_vga::con;

Console_vga::Console_vga() : num (25), row (0), col (0)
  200c48:	56                   	push   %esi
        }

        ALWAYS_INLINE
        inline void insert (Quota &quota, mword virt, unsigned o, mword attr, Paddr phys)
        {
            hpt.update (quota, virt, o, phys, attr);
  200c49:	b9 00 f0 bf cf       	mov    $0xcfbff000,%ecx
  200c4e:	53                   	push   %ebx
  200c4f:	ba 50 b4 01 c0       	mov    $0xc001b450,%edx
  200c54:	6a 00                	push   $0x0
  200c56:	89 c3                	mov    %eax,%ebx
  200c58:	68 13 01 00 00       	push   $0x113
  200c5d:	be d4 03 00 00       	mov    $0x3d4,%esi
  200c62:	68 00 90 0b 00       	push   $0xb9000
  200c67:	b8 14 b4 01 c0       	mov    $0xc001b414,%eax
  200c6c:	6a 00                	push   $0x0
  200c6e:	e8 4d d4 e0 bf       	call   c000e0c0 <_ZN3PteI3HptmLj2ELj10ELb0EE6updateER5QuotammmmNS1_4TypeE>
  200c73:	b0 0c                	mov    $0xc,%al
  200c75:	89 f2                	mov    %esi,%edx
  200c77:	ee                   	out    %al,(%dx)
  200c78:	b9 d5 03 00 00       	mov    $0x3d5,%ecx
  200c7d:	b0 08                	mov    $0x8,%al
  200c7f:	89 ca                	mov    %ecx,%edx
  200c81:	ee                   	out    %al,(%dx)
  200c82:	b0 0d                	mov    $0xd,%al
  200c84:	89 f2                	mov    %esi,%edx
  200c86:	ee                   	out    %al,(%dx)
  200c87:	31 c0                	xor    %eax,%eax
  200c89:	89 ca                	mov    %ecx,%edx
  200c8b:	ee                   	out    %al,(%dx)

    Pd::kern.Space_mem::insert (Pd::kern.quota, HV_GLOBAL_FBUF, 0, Hpt::HPT_NX | Hpt::HPT_G | Hpt::HPT_UC | Hpt::HPT_W | Hpt::HPT_P, 0xb9000);

    set_page (1);

    enable();
  200c8c:	83 c4 10             	add    $0x10,%esp
  200c8f:	89 d8                	mov    %ebx,%eax
}
  200c91:	5b                   	pop    %ebx
  200c92:	5e                   	pop    %esi

    Pd::kern.Space_mem::insert (Pd::kern.quota, HV_GLOBAL_FBUF, 0, Hpt::HPT_NX | Hpt::HPT_G | Hpt::HPT_UC | Hpt::HPT_W | Hpt::HPT_P, 0xb9000);

    set_page (1);

    enable();
  200c93:	e9 16 0e e0 bf       	jmp    c0001aae <_ZN7Console6enableEv>
  200c98:	c3                   	ret    
  200c99:	90                   	nop

00200c9a <_ZN11Console_vga5setupEv>:
}

void Console_vga::setup()
{
    if (Cmdline::novga || !Cmdline::spinner)
  200c9a:	80 3d 85 a3 01 c0 00 	cmpb   $0x0,0xc001a385
  200ca1:	0f 85 92 00 00 00    	jne    200d39 <_ZN11Console_vga5setupEv+0x9f>

    enable();
}

void Console_vga::setup()
{
  200ca7:	55                   	push   %ebp
  200ca8:	31 ed                	xor    %ebp,%ebp
    if (Cmdline::novga || !Cmdline::spinner)
  200caa:	80 3d 89 a3 01 c0 00 	cmpb   $0x0,0xc001a389

    enable();
}

void Console_vga::setup()
{
  200cb1:	57                   	push   %edi
  200cb2:	56                   	push   %esi
  200cb3:	53                   	push   %ebx
  200cb4:	89 c3                	mov    %eax,%ebx
    if (Cmdline::novga || !Cmdline::spinner)
  200cb6:	74 7d                	je     200d35 <_ZN11Console_vga5setupEv+0x9b>
        return;

    for (unsigned c = 0; c < min (Cpu::online, 12U); c++) {
  200cb8:	a1 40 a4 01 c0       	mov    0xc001a440,%eax

template <typename T>
ALWAYS_INLINE
static inline T min (T v1, T v2)
{
    return v1 < v2 ? v1 : v2;
  200cbd:	be 0c 00 00 00       	mov    $0xc,%esi
  200cc2:	83 f8 0c             	cmp    $0xc,%eax
  200cc5:	0f 43 c6             	cmovae %esi,%eax
  200cc8:	39 c5                	cmp    %eax,%ebp
  200cca:	73 69                	jae    200d35 <_ZN11Console_vga5setupEv+0x9b>

        if (row == --num)
  200ccc:	8b 43 08             	mov    0x8(%ebx),%eax
  200ccf:	8b 53 0c             	mov    0xc(%ebx),%edx
  200cd2:	8d 48 ff             	lea    -0x1(%eax),%ecx
  200cd5:	39 ca                	cmp    %ecx,%edx
  200cd7:	89 4b 08             	mov    %ecx,0x8(%ebx)
  200cda:	75 29                	jne    200d05 <_ZN11Console_vga5setupEv+0x6b>
        }

        ALWAYS_INLINE
        inline void clear_row (unsigned r)
        {
            memcpy (reinterpret_cast<void *>(HV_GLOBAL_FBUF), reinterpret_cast<void *>(HV_GLOBAL_FBUF + 160), 160 * r);
  200cdc:	69 d2 a0 00 00 00    	imul   $0xa0,%edx,%edx
            clear_row (row--);
  200ce2:	83 e8 02             	sub    $0x2,%eax
  200ce5:	89 43 0c             	mov    %eax,0xc(%ebx)
{
    mword dummy;
    asm volatile ("rep; movsb"
                  : "=D" (dummy), "+S" (s), "+c" (n)
                  : "0" (d)
                  : "memory");
  200ce8:	bf 00 f0 bf cf       	mov    $0xcfbff000,%edi
  200ced:	be a0 f0 bf cf       	mov    $0xcfbff0a0,%esi
  200cf2:	89 d1                	mov    %edx,%ecx
  200cf4:	f3 a4                	rep movsb %ds:(%esi),%es:(%edi)
{
    mword dummy;
    asm volatile ("rep; stosb"
                  : "=D" (dummy), "+c" (n)
                  : "0" (d), "a" (c)
                  : "memory");
  200cf6:	b9 a0 00 00 00       	mov    $0xa0,%ecx
  200cfb:	31 c0                	xor    %eax,%eax
            memset (reinterpret_cast<void *>(HV_GLOBAL_FBUF + 160 * r), 0, 160);
  200cfd:	8d ba 00 f0 bf cf    	lea    -0x30401000(%edx),%edi
  200d03:	f3 aa                	rep stos %al,%es:(%edi)

    enable();
}

void Console_vga::setup()
{
  200d05:	b8 10 00 00 00       	mov    $0x10,%eax
        inline unsigned spinner (unsigned id) { return id < 25 - num ? 24 - id : 0; }

        ALWAYS_INLINE
        inline void put (unsigned long r, unsigned long c, Color color, int x)
        {
            *reinterpret_cast<unsigned short volatile *>(HV_GLOBAL_FBUF + r * 160 + c * 2) = static_cast<unsigned short>(color << 8 | x);
  200d0a:	6b 53 08 50          	imul   $0x50,0x8(%ebx),%edx
  200d0e:	8d 8c 10 00 f8 df 67 	lea    0x67dff800(%eax,%edx,1),%ecx

        if (row == --num)
            clear_row (row--);

        for (unsigned i = SPN_GSI; i < 80; i++)
            put (num, i, COLOR_LIGHT_BLACK, ((i - SPN_GSI) & 0xf)["0123456789ABCDEF"]);
  200d15:	89 c2                	mov    %eax,%edx
  200d17:	83 e2 0f             	and    $0xf,%edx
    for (unsigned c = 0; c < min (Cpu::online, 12U); c++) {

        if (row == --num)
            clear_row (row--);

        for (unsigned i = SPN_GSI; i < 80; i++)
  200d1a:	40                   	inc    %eax
  200d1b:	66 0f be 92 14 66 01 	movsbw -0x3ffe99ec(%edx),%dx
  200d22:	c0 
  200d23:	80 ce 08             	or     $0x8,%dh
  200d26:	83 f8 50             	cmp    $0x50,%eax
  200d29:	0f b7 d2             	movzwl %dx,%edx
  200d2c:	66 89 14 09          	mov    %dx,(%ecx,%ecx,1)
  200d30:	75 d8                	jne    200d0a <_ZN11Console_vga5setupEv+0x70>
void Console_vga::setup()
{
    if (Cmdline::novga || !Cmdline::spinner)
        return;

    for (unsigned c = 0; c < min (Cpu::online, 12U); c++) {
  200d32:	45                   	inc    %ebp
  200d33:	eb 83                	jmp    200cb8 <_ZN11Console_vga5setupEv+0x1e>
            clear_row (row--);

        for (unsigned i = SPN_GSI; i < 80; i++)
            put (num, i, COLOR_LIGHT_BLACK, ((i - SPN_GSI) & 0xf)["0123456789ABCDEF"]);
    }
}
  200d35:	5b                   	pop    %ebx
  200d36:	5e                   	pop    %esi
  200d37:	5f                   	pop    %edi
  200d38:	5d                   	pop    %ebp
  200d39:	c3                   	ret    

00200d3a <_ZN4DmarC1Em>:
Dmar *      Dmar::list;
Dmar_ctx *  Dmar::ctx = new (Pd::kern.quota) Dmar_ctx;
Dmar_irt *  Dmar::irt = new (Pd::kern.quota) Dmar_irt;
uint32      Dmar::gcmd = GCMD_TE;

Dmar::Dmar (Paddr p) : List<Dmar> (list), reg_base ((hwdev_addr -= PAGE_SIZE) | (p & PAGE_MASK)), invq (static_cast<Dmar_qi *>(Buddy::allocator.alloc (ord, Pd::kern.quota, Buddy::FILL_0))), invq_idx (0)
  200d3a:	57                   	push   %edi
  200d3b:	56                   	push   %esi
  200d3c:	89 d6                	mov    %edx,%esi
  200d3e:	53                   	push   %ebx
  200d3f:	89 c3                	mov    %eax,%ebx
  200d41:	ba 50 a4 01 c0       	mov    $0xc001a450,%edx
    protected:
        T *next;

    public:
        ALWAYS_INLINE
        explicit inline List (T *&list) : next (nullptr)
  200d46:	c7 00 00 00 00 00    	movl   $0x0,(%eax)
        {
            T **ptr; for (ptr = &list; *ptr; ptr = &(*ptr)->next) ; *ptr = static_cast<T *>(this);
  200d4c:	a1 50 a4 01 c0       	mov    0xc001a450,%eax
  200d51:	85 c0                	test   %eax,%eax
  200d53:	74 06                	je     200d5b <_ZN4DmarC1Em+0x21>
  200d55:	89 c2                	mov    %eax,%edx
  200d57:	8b 00                	mov    (%eax),%eax
  200d59:	eb f6                	jmp    200d51 <_ZN4DmarC1Em+0x17>
  200d5b:	89 1a                	mov    %ebx,(%edx)
  200d5d:	89 f2                	mov    %esi,%edx
  200d5f:	b9 50 b4 01 c0       	mov    $0xc001b450,%ecx
  200d64:	a1 58 a2 01 c0       	mov    0xc001a258,%eax
  200d69:	81 e2 ff 0f 00 00    	and    $0xfff,%edx
{
    Pd::kern.Space_mem::delreg (Pd::kern.quota, p & ~PAGE_MASK);
  200d6f:	81 e6 00 f0 ff ff    	and    $0xfffff000,%esi
Dmar *      Dmar::list;
Dmar_ctx *  Dmar::ctx = new (Pd::kern.quota) Dmar_ctx;
Dmar_irt *  Dmar::irt = new (Pd::kern.quota) Dmar_irt;
uint32      Dmar::gcmd = GCMD_TE;

Dmar::Dmar (Paddr p) : List<Dmar> (list), reg_base ((hwdev_addr -= PAGE_SIZE) | (p & PAGE_MASK)), invq (static_cast<Dmar_qi *>(Buddy::allocator.alloc (ord, Pd::kern.quota, Buddy::FILL_0))), invq_idx (0)
  200d75:	6a 01                	push   $0x1
  200d77:	2d 00 10 00 00       	sub    $0x1000,%eax
  200d7c:	a3 58 a2 01 c0       	mov    %eax,0xc001a258
  200d81:	09 d0                	or     %edx,%eax
  200d83:	31 d2                	xor    %edx,%edx
  200d85:	89 43 04             	mov    %eax,0x4(%ebx)
  200d88:	b8 54 a3 01 c0       	mov    $0xc001a354,%eax
  200d8d:	e8 7a 06 e0 bf       	call   c000140c <_ZN5Buddy5allocEtR5QuotaNS_4FillE>
{
    Pd::kern.Space_mem::delreg (Pd::kern.quota, p & ~PAGE_MASK);
  200d92:	89 f1                	mov    %esi,%ecx
  200d94:	ba 50 b4 01 c0       	mov    $0xc001b450,%edx
Dmar *      Dmar::list;
Dmar_ctx *  Dmar::ctx = new (Pd::kern.quota) Dmar_ctx;
Dmar_irt *  Dmar::irt = new (Pd::kern.quota) Dmar_irt;
uint32      Dmar::gcmd = GCMD_TE;

Dmar::Dmar (Paddr p) : List<Dmar> (list), reg_base ((hwdev_addr -= PAGE_SIZE) | (p & PAGE_MASK)), invq (static_cast<Dmar_qi *>(Buddy::allocator.alloc (ord, Pd::kern.quota, Buddy::FILL_0))), invq_idx (0)
  200d99:	c7 43 1c 00 00 00 00 	movl   $0x0,0x1c(%ebx)
  200da0:	89 43 18             	mov    %eax,0x18(%ebx)
{
    Pd::kern.Space_mem::delreg (Pd::kern.quota, p & ~PAGE_MASK);
  200da3:	b8 0c b3 01 c0       	mov    $0xc001b30c,%eax
  200da8:	e8 53 16 e0 bf       	call   c0002400 <_ZN5Space6delregER5Quotam>
  200dad:	8b 4b 04             	mov    0x4(%ebx),%ecx
  200db0:	ba 50 b4 01 c0       	mov    $0xc001b450,%edx
  200db5:	6a 00                	push   $0x0
  200db7:	b8 14 b4 01 c0       	mov    $0xc001b414,%eax
  200dbc:	68 13 01 00 00       	push   $0x113
  200dc1:	56                   	push   %esi
  200dc2:	6a 00                	push   $0x0
  200dc4:	e8 f7 d2 e0 bf       	call   c000e0c0 <_ZN3PteI3HptmLj2ELj10ELb0EE6updateER5QuotammmmNS1_4TypeE>
  200dc9:	8b 4b 04             	mov    0x4(%ebx),%ecx
#include "util.hpp"

ALWAYS_INLINE
inline long int bit_scan_reverse (mword val)
{
    if (EXPECT_FALSE (!val))
  200dcc:	83 c4 14             	add    $0x14,%esp

        template <typename T>
        ALWAYS_INLINE
        inline T read (Reg reg)
        {
            return *reinterpret_cast<T volatile *>(reg_base + reg);
  200dcf:	8b 41 08             	mov    0x8(%ecx),%eax
  200dd2:	8b 51 0c             	mov    0xc(%ecx),%edx
    Pd::kern.Space_mem::insert (Pd::kern.quota, reg_base, 0, Hpt::HPT_NX | Hpt::HPT_G | Hpt::HPT_UC | Hpt::HPT_W | Hpt::HPT_P, p & ~PAGE_MASK);

    cap  = read<uint64>(REG_CAP);
  200dd5:	89 43 08             	mov    %eax,0x8(%ebx)
        return -1;
  200dd8:	83 c8 ff             	or     $0xffffffff,%eax
  200ddb:	89 53 0c             	mov    %edx,0xc(%ebx)
    ecap = read<uint64>(REG_ECAP);

    Dpt::ord = min (Dpt::ord, static_cast<mword>(bit_scan_reverse (static_cast<mword>(cap >> 34) & 0xf) + 2) * Dpt::bpl() - 1);
  200dde:	c1 ea 02             	shr    $0x2,%edx
  200de1:	8b 71 10             	mov    0x10(%ecx),%esi
#include "util.hpp"

ALWAYS_INLINE
inline long int bit_scan_reverse (mword val)
{
    if (EXPECT_FALSE (!val))
  200de4:	83 e2 0f             	and    $0xf,%edx
  200de7:	8b 79 14             	mov    0x14(%ecx),%edi
{
    Pd::kern.Space_mem::delreg (Pd::kern.quota, p & ~PAGE_MASK);
    Pd::kern.Space_mem::insert (Pd::kern.quota, reg_base, 0, Hpt::HPT_NX | Hpt::HPT_G | Hpt::HPT_UC | Hpt::HPT_W | Hpt::HPT_P, p & ~PAGE_MASK);

    cap  = read<uint64>(REG_CAP);
    ecap = read<uint64>(REG_ECAP);
  200dea:	89 73 10             	mov    %esi,0x10(%ebx)
  200ded:	89 7b 14             	mov    %edi,0x14(%ebx)
  200df0:	74 03                	je     200df5 <_ZN4DmarC1Em+0xbb>
        return -1;

    asm volatile ("bsr %1, %0" : "=r" (val) : "rm" (val));

    return val;
  200df2:	0f bd c2             	bsr    %edx,%eax
  200df5:	8b 15 64 a2 01 c0    	mov    0xc001a264,%edx

    Dpt::ord = min (Dpt::ord, static_cast<mword>(bit_scan_reverse (static_cast<mword>(cap >> 34) & 0xf) + 2) * Dpt::bpl() - 1);
  200dfb:	83 c0 02             	add    $0x2,%eax
  200dfe:	8d 04 c0             	lea    (%eax,%eax,8),%eax
  200e01:	48                   	dec    %eax
  200e02:	39 d0                	cmp    %edx,%eax
  200e04:	0f 47 c2             	cmova  %edx,%eax

    write<uint32>(REG_FEADDR, 0xfee00000 | Cpu::apic_id[0] << 12);
    write<uint32>(REG_FEDATA, VEC_MSI_DMAR);
    write<uint32>(REG_FECTL,  0);

    write<uint64>(REG_RTADDR, Buddy::ptr_to_phys (ctx));
  200e07:	31 d2                	xor    %edx,%edx
    Pd::kern.Space_mem::insert (Pd::kern.quota, reg_base, 0, Hpt::HPT_NX | Hpt::HPT_G | Hpt::HPT_UC | Hpt::HPT_W | Hpt::HPT_P, p & ~PAGE_MASK);

    cap  = read<uint64>(REG_CAP);
    ecap = read<uint64>(REG_ECAP);

    Dpt::ord = min (Dpt::ord, static_cast<mword>(bit_scan_reverse (static_cast<mword>(cap >> 34) & 0xf) + 2) * Dpt::bpl() - 1);
  200e09:	a3 64 a2 01 c0       	mov    %eax,0xc001a264

    write<uint32>(REG_FEADDR, 0xfee00000 | Cpu::apic_id[0] << 12);
  200e0e:	0f b6 05 c0 a3 01 c0 	movzbl 0xc001a3c0,%eax
  200e15:	c1 e0 0c             	shl    $0xc,%eax
  200e18:	0d 00 00 e0 fe       	or     $0xfee00000,%eax

        template <typename T>
        ALWAYS_INLINE
        inline void write (Reg reg, T val)
        {
            *reinterpret_cast<T volatile *>(reg_base + reg) = val;
  200e1d:	89 41 40             	mov    %eax,0x40(%ecx)
  200e20:	8b 43 04             	mov    0x4(%ebx),%eax
  200e23:	c7 40 3c a6 00 00 00 	movl   $0xa6,0x3c(%eax)
  200e2a:	8b 43 04             	mov    0x4(%ebx),%eax
  200e2d:	c7 40 38 00 00 00 00 	movl   $0x0,0x38(%eax)
        }

        ALWAYS_INLINE
        inline mword virt_to_phys (mword virt)
        {
            return virt - reinterpret_cast<mword>(&OFFSET);
  200e34:	a1 4c a4 01 c0       	mov    0xc001a44c,%eax
  200e39:	8b 4b 04             	mov    0x4(%ebx),%ecx
  200e3c:	2d 00 00 c0 bf       	sub    $0xbfc00000,%eax
  200e41:	89 41 20             	mov    %eax,0x20(%ecx)
  200e44:	89 51 24             	mov    %edx,0x24(%ecx)
  200e47:	8b 43 04             	mov    0x4(%ebx),%eax
  200e4a:	c7 40 18 00 00 00 40 	movl   $0x40000000,0x18(%eax)
  200e51:	8b 4b 04             	mov    0x4(%ebx),%ecx

        template <typename T>
        ALWAYS_INLINE
        inline T read (Reg reg)
        {
            return *reinterpret_cast<T volatile *>(reg_base + reg);
  200e54:	8b 41 1c             	mov    0x1c(%ecx),%eax

        ALWAYS_INLINE
        inline void command (uint32 val)
        {
            write<uint32>(REG_GCMD, val);
            while ((read<uint32>(REG_GSTS) & val) != val)
  200e57:	a9 00 00 00 40       	test   $0x40000000,%eax
  200e5c:	75 04                	jne    200e62 <_ZN4DmarC1Em+0x128>
  200e5e:	f3 90                	pause  
  200e60:	eb ef                	jmp    200e51 <_ZN4DmarC1Em+0x117>
    write<uint32>(REG_FECTL,  0);

    write<uint64>(REG_RTADDR, Buddy::ptr_to_phys (ctx));
    command (GCMD_SRTP);

    if (ir()) {
  200e62:	f6 43 10 08          	testb  $0x8,0x10(%ebx)
  200e66:	74 40                	je     200ea8 <_ZN4DmarC1Em+0x16e>
  200e68:	a1 48 a4 01 c0       	mov    0xc001a448,%eax
        write<uint64>(REG_IRTA, Buddy::ptr_to_phys (irt) | 7);
  200e6d:	31 d2                	xor    %edx,%edx
  200e6f:	2d 00 00 c0 bf       	sub    $0xbfc00000,%eax
  200e74:	83 c8 07             	or     $0x7,%eax

        template <typename T>
        ALWAYS_INLINE
        inline void write (Reg reg, T val)
        {
            *reinterpret_cast<T volatile *>(reg_base + reg) = val;
  200e77:	89 81 b8 00 00 00    	mov    %eax,0xb8(%ecx)
  200e7d:	89 91 bc 00 00 00    	mov    %edx,0xbc(%ecx)
  200e83:	8b 43 04             	mov    0x4(%ebx),%eax
  200e86:	c7 40 18 00 00 00 01 	movl   $0x1000000,0x18(%eax)

        template <typename T>
        ALWAYS_INLINE
        inline T read (Reg reg)
        {
            return *reinterpret_cast<T volatile *>(reg_base + reg);
  200e8d:	8b 43 04             	mov    0x4(%ebx),%eax
  200e90:	8b 40 1c             	mov    0x1c(%eax),%eax

        ALWAYS_INLINE
        inline void command (uint32 val)
        {
            write<uint32>(REG_GCMD, val);
            while ((read<uint32>(REG_GSTS) & val) != val)
  200e93:	a9 00 00 00 01       	test   $0x1000000,%eax
  200e98:	75 04                	jne    200e9e <_ZN4DmarC1Em+0x164>
  200e9a:	f3 90                	pause  
  200e9c:	eb ef                	jmp    200e8d <_ZN4DmarC1Em+0x153>
        command (GCMD_SIRTP);
        gcmd |= GCMD_IRE;
  200e9e:	81 0d a8 9f 01 c0 00 	orl    $0x2000000,0xc0019fa8
  200ea5:	00 00 02 
    }

    if (qi()) {
  200ea8:	f6 43 10 02          	testb  $0x2,0x10(%ebx)
  200eac:	74 55                	je     200f03 <_ZN4DmarC1Em+0x1c9>

        template <typename T>
        ALWAYS_INLINE
        inline void write (Reg reg, T val)
        {
            *reinterpret_cast<T volatile *>(reg_base + reg) = val;
  200eae:	8b 43 04             	mov    0x4(%ebx),%eax
        write<uint64>(REG_IQT, 0);
        write<uint64>(REG_IQA, Buddy::ptr_to_phys (invq));
  200eb1:	31 d2                	xor    %edx,%edx
  200eb3:	c7 80 88 00 00 00 00 	movl   $0x0,0x88(%eax)
  200eba:	00 00 00 
  200ebd:	c7 80 8c 00 00 00 00 	movl   $0x0,0x8c(%eax)
  200ec4:	00 00 00 
  200ec7:	8b 43 18             	mov    0x18(%ebx),%eax
  200eca:	8b 4b 04             	mov    0x4(%ebx),%ecx
  200ecd:	2d 00 00 c0 bf       	sub    $0xbfc00000,%eax
  200ed2:	89 81 90 00 00 00    	mov    %eax,0x90(%ecx)
  200ed8:	89 91 94 00 00 00    	mov    %edx,0x94(%ecx)
  200ede:	8b 43 04             	mov    0x4(%ebx),%eax
  200ee1:	c7 40 18 00 00 00 04 	movl   $0x4000000,0x18(%eax)

        template <typename T>
        ALWAYS_INLINE
        inline T read (Reg reg)
        {
            return *reinterpret_cast<T volatile *>(reg_base + reg);
  200ee8:	8b 43 04             	mov    0x4(%ebx),%eax
  200eeb:	8b 40 1c             	mov    0x1c(%eax),%eax

        ALWAYS_INLINE
        inline void command (uint32 val)
        {
            write<uint32>(REG_GCMD, val);
            while ((read<uint32>(REG_GSTS) & val) != val)
  200eee:	a9 00 00 00 04       	test   $0x4000000,%eax
  200ef3:	75 04                	jne    200ef9 <_ZN4DmarC1Em+0x1bf>
  200ef5:	f3 90                	pause  
  200ef7:	eb ef                	jmp    200ee8 <_ZN4DmarC1Em+0x1ae>
        command (GCMD_QIE);
        gcmd |= GCMD_QIE;
  200ef9:	81 0d a8 9f 01 c0 00 	orl    $0x4000000,0xc0019fa8
  200f00:	00 00 04 
    }
}
  200f03:	5b                   	pop    %ebx
  200f04:	5e                   	pop    %esi
  200f05:	5f                   	pop    %edi
  200f06:	c3                   	ret    
  200f07:	90                   	nop

00200f08 <_ZN3Gsi5setupEv>:

Gsi         Gsi::gsi_table[NUM_GSI];
unsigned    Gsi::irq_table[NUM_IRQ];

void Gsi::setup()
{
  200f08:	55                   	push   %ebp
  200f09:	57                   	push   %edi
  200f0a:	bf e0 a4 01 c0       	mov    $0xc001a4e0,%edi
  200f0f:	56                   	push   %esi
    for (unsigned gsi = 0; gsi < NUM_GSI; gsi++) {
  200f10:	31 f6                	xor    %esi,%esi

Gsi         Gsi::gsi_table[NUM_GSI];
unsigned    Gsi::irq_table[NUM_IRQ];

void Gsi::setup()
{
  200f12:	53                   	push   %ebx
  200f13:	b3 20                	mov    $0x20,%bl

            call_rcu(true);
        }

        ALWAYS_INLINE
        static inline void *operator new (size_t, Quota &quota) { return cache.alloc(quota); }
  200f15:	ba 50 b4 01 c0       	mov    $0xc001b450,%edx
  200f1a:	b8 b4 b4 01 c0       	mov    $0xc001b4b4,%eax
  200f1f:	e8 52 f3 e0 bf       	call   c0010276 <_ZN10Slab_cache5allocER5Quota>
    for (unsigned gsi = 0; gsi < NUM_GSI; gsi++) {

        Space_obj::insert_root (Pd::kern.quota, Gsi::gsi_table[gsi].sm = new (Pd::kern.quota) Sm (&Pd::kern, NUM_CPU + gsi));
  200f24:	8d 4e 40             	lea    0x40(%esi),%ecx
  200f27:	ba c0 b2 01 c0       	mov    $0xc001b2c0,%edx
  200f2c:	6a 00                	push   $0x0
  200f2e:	6a 00                	push   $0x0
  200f30:	6a 00                	push   $0x0
  200f32:	89 c5                	mov    %eax,%ebp
  200f34:	e8 e1 f7 e0 bf       	call   c001071a <_ZN2SmC1EP2PdmmPS_m>
  200f39:	89 ea                	mov    %ebp,%edx
  200f3b:	b8 50 b4 01 c0       	mov    $0xc001b450,%eax
  200f40:	89 2f                	mov    %ebp,(%edi)
  200f42:	e8 75 01 e1 bf       	call   c00110bc <_ZN9Space_obj11insert_rootER5QuotaP7Kobject>

        gsi_table[gsi].vec = static_cast<uint8>(VEC_GSI + gsi);

        if (gsi < NUM_IRQ) {
  200f47:	83 c4 0c             	add    $0xc,%esp
  200f4a:	83 fe 0f             	cmp    $0xf,%esi
{
    for (unsigned gsi = 0; gsi < NUM_GSI; gsi++) {

        Space_obj::insert_root (Pd::kern.quota, Gsi::gsi_table[gsi].sm = new (Pd::kern.quota) Sm (&Pd::kern, NUM_CPU + gsi));

        gsi_table[gsi].vec = static_cast<uint8>(VEC_GSI + gsi);
  200f4d:	88 5f 08             	mov    %bl,0x8(%edi)

        if (gsi < NUM_IRQ) {
  200f50:	77 13                	ja     200f65 <_ZN3Gsi5setupEv+0x5d>
            irq_table[gsi] = gsi;
            gsi_table[gsi].trg = 0;
  200f52:	6b c6 0c             	imul   $0xc,%esi,%eax
        Space_obj::insert_root (Pd::kern.quota, Gsi::gsi_table[gsi].sm = new (Pd::kern.quota) Sm (&Pd::kern, NUM_CPU + gsi));

        gsi_table[gsi].vec = static_cast<uint8>(VEC_GSI + gsi);

        if (gsi < NUM_IRQ) {
            irq_table[gsi] = gsi;
  200f55:	89 34 b5 a0 a4 01 c0 	mov    %esi,-0x3ffe5b60(,%esi,4)
            gsi_table[gsi].trg = 0;
            gsi_table[gsi].pol = 0;
  200f5c:	80 a0 e9 a4 01 c0 5f 	andb   $0x5f,-0x3ffe5b17(%eax)
  200f63:	eb 0a                	jmp    200f6f <_ZN3Gsi5setupEv+0x67>
        } else {
            gsi_table[gsi].trg = 1;
  200f65:	6b c6 0c             	imul   $0xc,%esi,%eax
            gsi_table[gsi].pol = 1;
  200f68:	80 88 e9 a4 01 c0 a0 	orb    $0xa0,-0x3ffe5b17(%eax)
Gsi         Gsi::gsi_table[NUM_GSI];
unsigned    Gsi::irq_table[NUM_IRQ];

void Gsi::setup()
{
    for (unsigned gsi = 0; gsi < NUM_GSI; gsi++) {
  200f6f:	46                   	inc    %esi
  200f70:	83 c7 0c             	add    $0xc,%edi
  200f73:	fe c3                	inc    %bl
  200f75:	81 fe 80 00 00 00    	cmp    $0x80,%esi
  200f7b:	75 98                	jne    200f15 <_ZN3Gsi5setupEv+0xd>
        } else {
            gsi_table[gsi].trg = 1;
            gsi_table[gsi].pol = 1;
        }
    }
}
  200f7d:	5b                   	pop    %ebx
  200f7e:	5e                   	pop    %esi
  200f7f:	5f                   	pop    %edi
  200f80:	5d                   	pop    %ebp
  200f81:	c3                   	ret    

00200f82 <_ZN3Hip7add_memERP7Hip_memmj>:

    h->length = static_cast<uint16>(reinterpret_cast<mword>(mem) - reinterpret_cast<mword>(h));
}

void Hip::add_mem (Hip_mem *&mem, mword addr, size_t len)
{
  200f82:	57                   	push   %edi
  200f83:	56                   	push   %esi
  200f84:	89 ce                	mov    %ecx,%esi
  200f86:	53                   	push   %ebx
  200f87:	89 c3                	mov    %eax,%ebx
    char *mmap_addr = static_cast<char *>(Hpt::remap (Pd::kern.quota, addr));
  200f89:	b8 50 b4 01 c0       	mov    $0xc001b450,%eax
  200f8e:	e8 5b 4c e0 bf       	call   c0005bee <_ZN3Hpt5remapER5Quotam>

    for (char *ptr = mmap_addr; ptr < mmap_addr + len; mem++) {
  200f93:	8d 0c 30             	lea    (%eax,%esi,1),%ecx
  200f96:	39 c8                	cmp    %ecx,%eax
  200f98:	73 37                	jae    200fd1 <_ZN3Hip7add_memERP7Hip_memmj+0x4f>

        Multiboot_mmap *map = reinterpret_cast<Multiboot_mmap *>(ptr);

        mem->addr = map->addr;
  200f9a:	8b 70 04             	mov    0x4(%eax),%esi
  200f9d:	8b 78 08             	mov    0x8(%eax),%edi
  200fa0:	8b 13                	mov    (%ebx),%edx
  200fa2:	89 32                	mov    %esi,(%edx)
  200fa4:	89 7a 04             	mov    %edi,0x4(%edx)
        mem->size = map->len;
  200fa7:	8b 78 10             	mov    0x10(%eax),%edi
  200faa:	8b 13                	mov    (%ebx),%edx
  200fac:	8b 70 0c             	mov    0xc(%eax),%esi
  200faf:	89 7a 0c             	mov    %edi,0xc(%edx)
  200fb2:	89 72 08             	mov    %esi,0x8(%edx)
        mem->type = map->type;
  200fb5:	8b 13                	mov    (%ebx),%edx
  200fb7:	8b 78 14             	mov    0x14(%eax),%edi
  200fba:	89 7a 10             	mov    %edi,0x10(%edx)
        mem->aux  = 0;
  200fbd:	8b 13                	mov    (%ebx),%edx
  200fbf:	c7 42 14 00 00 00 00 	movl   $0x0,0x14(%edx)

        ptr += map->size + 4;
  200fc6:	8b 10                	mov    (%eax),%edx

void Hip::add_mem (Hip_mem *&mem, mword addr, size_t len)
{
    char *mmap_addr = static_cast<char *>(Hpt::remap (Pd::kern.quota, addr));

    for (char *ptr = mmap_addr; ptr < mmap_addr + len; mem++) {
  200fc8:	83 03 18             	addl   $0x18,(%ebx)
        mem->addr = map->addr;
        mem->size = map->len;
        mem->type = map->type;
        mem->aux  = 0;

        ptr += map->size + 4;
  200fcb:	8d 44 10 04          	lea    0x4(%eax,%edx,1),%eax
  200fcf:	eb c5                	jmp    200f96 <_ZN3Hip7add_memERP7Hip_memmj+0x14>
    }
}
  200fd1:	5b                   	pop    %ebx
  200fd2:	5e                   	pop    %esi
  200fd3:	5f                   	pop    %edi
  200fd4:	c3                   	ret    
  200fd5:	90                   	nop

00200fd6 <_ZN3Hip7add_modERP7Hip_memmj>:

void Hip::add_mod (Hip_mem *&mem, mword addr, size_t count)
{
  200fd6:	57                   	push   %edi
  200fd7:	89 cf                	mov    %ecx,%edi
  200fd9:	56                   	push   %esi
  200fda:	53                   	push   %ebx
  200fdb:	89 c3                	mov    %eax,%ebx
    Multiboot_module *mod = static_cast<Multiboot_module *>(Hpt::remap (Pd::kern.quota, addr));
  200fdd:	b8 50 b4 01 c0       	mov    $0xc001b450,%eax
  200fe2:	e8 07 4c e0 bf       	call   c0005bee <_ZN3Hpt5remapER5Quotam>

    if (count) {
  200fe7:	85 ff                	test   %edi,%edi
  200fe9:	74 13                	je     200ffe <_ZN3Hip7add_modERP7Hip_memmj+0x28>
        root_addr = mod->s_addr;
  200feb:	8b 10                	mov    (%eax),%edx
  200fed:	89 15 e4 aa 01 c0    	mov    %edx,0xc001aae4
        root_size = mod->e_addr - mod->s_addr;
  200ff3:	8b 50 04             	mov    0x4(%eax),%edx
  200ff6:	2b 10                	sub    (%eax),%edx
  200ff8:	89 15 e0 aa 01 c0    	mov    %edx,0xc001aae0
        ptr += map->size + 4;
    }
}

void Hip::add_mod (Hip_mem *&mem, mword addr, size_t count)
{
  200ffe:	31 d2                	xor    %edx,%edx
    if (count) {
        root_addr = mod->s_addr;
        root_size = mod->e_addr - mod->s_addr;
    }

    for (unsigned i = 0; i < count; i++, mod++, mem++) {
  201000:	39 fa                	cmp    %edi,%edx
  201002:	74 39                	je     20103d <_ZN3Hip7add_modERP7Hip_memmj+0x67>
        mem->addr = mod->s_addr;
  201004:	8b 30                	mov    (%eax),%esi
    if (count) {
        root_addr = mod->s_addr;
        root_size = mod->e_addr - mod->s_addr;
    }

    for (unsigned i = 0; i < count; i++, mod++, mem++) {
  201006:	42                   	inc    %edx
  201007:	83 c0 10             	add    $0x10,%eax
        mem->addr = mod->s_addr;
  20100a:	8b 0b                	mov    (%ebx),%ecx
  20100c:	89 31                	mov    %esi,(%ecx)
  20100e:	c7 41 04 00 00 00 00 	movl   $0x0,0x4(%ecx)
        mem->size = mod->e_addr - mod->s_addr;
  201015:	8b 70 f4             	mov    -0xc(%eax),%esi
  201018:	8b 0b                	mov    (%ebx),%ecx
  20101a:	2b 70 f0             	sub    -0x10(%eax),%esi
  20101d:	c7 41 0c 00 00 00 00 	movl   $0x0,0xc(%ecx)
  201024:	89 71 08             	mov    %esi,0x8(%ecx)
        mem->type = Hip_mem::MB_MODULE;
  201027:	8b 0b                	mov    (%ebx),%ecx
  201029:	c7 41 10 fe ff ff ff 	movl   $0xfffffffe,0x10(%ecx)
        mem->aux  = mod->cmdline;
  201030:	8b 70 f8             	mov    -0x8(%eax),%esi
  201033:	8b 0b                	mov    (%ebx),%ecx
  201035:	89 71 14             	mov    %esi,0x14(%ecx)
    if (count) {
        root_addr = mod->s_addr;
        root_size = mod->e_addr - mod->s_addr;
    }

    for (unsigned i = 0; i < count; i++, mod++, mem++) {
  201038:	83 03 18             	addl   $0x18,(%ebx)
  20103b:	eb c3                	jmp    201000 <_ZN3Hip7add_modERP7Hip_memmj+0x2a>
        mem->addr = mod->s_addr;
        mem->size = mod->e_addr - mod->s_addr;
        mem->type = Hip_mem::MB_MODULE;
        mem->aux  = mod->cmdline;
    }
}
  20103d:	5b                   	pop    %ebx
  20103e:	5e                   	pop    %esi
  20103f:	5f                   	pop    %edi
  201040:	c3                   	ret    
  201041:	90                   	nop

00201042 <_ZN3Hip7add_mhvERP7Hip_mem>:

void Hip::add_mhv (Hip_mem *&mem)
{
    mem->addr = reinterpret_cast<mword>(&LINK_P);
  201042:	8b 10                	mov    (%eax),%edx
  201044:	b9 00 00 40 00       	mov    $0x400000,%ecx
        mem->aux  = mod->cmdline;
    }
}

void Hip::add_mhv (Hip_mem *&mem)
{
  201049:	53                   	push   %ebx
    mem->addr = reinterpret_cast<mword>(&LINK_P);
    mem->size = reinterpret_cast<mword>(&LINK_E) - mem->addr;
  20104a:	31 db                	xor    %ebx,%ebx
    }
}

void Hip::add_mhv (Hip_mem *&mem)
{
    mem->addr = reinterpret_cast<mword>(&LINK_P);
  20104c:	89 0a                	mov    %ecx,(%edx)
    mem->size = reinterpret_cast<mword>(&LINK_E) - mem->addr;
  20104e:	b9 00 00 80 02       	mov    $0x2800000,%ecx
    }
}

void Hip::add_mhv (Hip_mem *&mem)
{
    mem->addr = reinterpret_cast<mword>(&LINK_P);
  201053:	c7 42 04 00 00 00 00 	movl   $0x0,0x4(%edx)
    mem->size = reinterpret_cast<mword>(&LINK_E) - mem->addr;
  20105a:	8b 10                	mov    (%eax),%edx
  20105c:	2b 0a                	sub    (%edx),%ecx
  20105e:	1b 5a 04             	sbb    0x4(%edx),%ebx
  201061:	89 4a 08             	mov    %ecx,0x8(%edx)
  201064:	89 5a 0c             	mov    %ebx,0xc(%edx)
    mem->type = Hip_mem::HYPERVISOR;
  201067:	8b 10                	mov    (%eax),%edx
  201069:	c7 42 10 ff ff ff ff 	movl   $0xffffffff,0x10(%edx)
    mem++;
  201070:	83 00 18             	addl   $0x18,(%eax)
}
  201073:	5b                   	pop    %ebx
  201074:	c3                   	ret    
  201075:	90                   	nop

00201076 <_ZN3Hip5buildEm>:

mword Hip::root_addr;
mword Hip::root_size;

void Hip::build (mword addr)
{
  201076:	55                   	push   %ebp
    h->sel_exc    = NUM_EXC;
    h->sel_vmi    = NUM_VMI;
    h->cfg_page   = PAGE_SIZE;
    h->cfg_utcb   = PAGE_SIZE;

    Multiboot *mbi = static_cast<Multiboot *>(Hpt::remap (Pd::kern.quota, addr));
  201077:	89 c2                	mov    %eax,%edx

mword Hip::root_addr;
mword Hip::root_size;

void Hip::build (mword addr)
{
  201079:	57                   	push   %edi
    h->sel_exc    = NUM_EXC;
    h->sel_vmi    = NUM_VMI;
    h->cfg_page   = PAGE_SIZE;
    h->cfg_utcb   = PAGE_SIZE;

    Multiboot *mbi = static_cast<Multiboot *>(Hpt::remap (Pd::kern.quota, addr));
  20107a:	b8 50 b4 01 c0       	mov    $0xc001b450,%eax

mword Hip::root_addr;
mword Hip::root_size;

void Hip::build (mword addr)
{
  20107f:	56                   	push   %esi
  201080:	53                   	push   %ebx
  201081:	83 ec 08             	sub    $0x8,%esp
    Hip *h = hip();

    h->signature  = 0x41564f4e;
  201084:	c7 05 00 e0 01 c0 4e 	movl   $0x41564f4e,0xc001e000
  20108b:	4f 56 41 
    h->cpu_offs   = reinterpret_cast<mword>(h->cpu_desc) - reinterpret_cast<mword>(h);
  20108e:	66 c7 05 08 e0 01 c0 	movw   $0x38,0xc001e008
  201095:	38 00 
    h->cpu_size   = static_cast<uint16>(sizeof (Hip_cpu));
  201097:	66 c7 05 0a e0 01 c0 	movw   $0x8,0xc001e00a
  20109e:	08 00 
    h->mem_offs   = reinterpret_cast<mword>(h->mem_desc) - reinterpret_cast<mword>(h);
  2010a0:	66 c7 05 0c e0 01 c0 	movw   $0x238,0xc001e00c
  2010a7:	38 02 
    h->mem_size   = static_cast<uint16>(sizeof (Hip_mem));
  2010a9:	66 c7 05 0e e0 01 c0 	movw   $0x18,0xc001e00e
  2010b0:	18 00 
    h->api_flg    = FEAT_VMX | FEAT_SVM;
  2010b2:	c7 05 10 e0 01 c0 06 	movl   $0x6,0xc001e010
  2010b9:	00 00 00 
    h->api_ver    = CFG_VER;
  2010bc:	c7 05 14 e0 01 c0 07 	movl   $0x7,0xc001e014
  2010c3:	00 00 00 
    h->sel_num    = Space_obj::caps;
  2010c6:	c7 05 18 e0 01 c0 00 	movl   $0x8000000,0xc001e018
  2010cd:	00 00 08 
    h->sel_gsi    = NUM_GSI;
  2010d0:	c7 05 24 e0 01 c0 80 	movl   $0x80,0xc001e024
  2010d7:	00 00 00 
    h->sel_exc    = NUM_EXC;
  2010da:	c7 05 1c e0 01 c0 20 	movl   $0x20,0xc001e01c
  2010e1:	00 00 00 
    h->sel_vmi    = NUM_VMI;
  2010e4:	c7 05 20 e0 01 c0 00 	movl   $0x100,0xc001e020
  2010eb:	01 00 00 
    h->cfg_page   = PAGE_SIZE;
  2010ee:	c7 05 28 e0 01 c0 00 	movl   $0x1000,0xc001e028
  2010f5:	10 00 00 
    h->cfg_utcb   = PAGE_SIZE;
  2010f8:	c7 05 2c e0 01 c0 00 	movl   $0x1000,0xc001e02c
  2010ff:	10 00 00 

    Multiboot *mbi = static_cast<Multiboot *>(Hpt::remap (Pd::kern.quota, addr));
  201102:	e8 e7 4a e0 bf       	call   c0005bee <_ZN3Hpt5remapER5Quotam>

    uint32 flags       = mbi->flags;
  201107:	8b 18                	mov    (%eax),%ebx
    h->sel_exc    = NUM_EXC;
    h->sel_vmi    = NUM_VMI;
    h->cfg_page   = PAGE_SIZE;
    h->cfg_utcb   = PAGE_SIZE;

    Multiboot *mbi = static_cast<Multiboot *>(Hpt::remap (Pd::kern.quota, addr));
  201109:	89 c2                	mov    %eax,%edx

    uint32 flags       = mbi->flags;
    uint32 cmdline     = mbi->cmdline;
    uint32 mmap_addr   = mbi->mmap_addr;
  20110b:	8b 6a 30             	mov    0x30(%edx),%ebp
    h->cfg_utcb   = PAGE_SIZE;

    Multiboot *mbi = static_cast<Multiboot *>(Hpt::remap (Pd::kern.quota, addr));

    uint32 flags       = mbi->flags;
    uint32 cmdline     = mbi->cmdline;
  20110e:	8b 40 10             	mov    0x10(%eax),%eax
    uint32 mmap_addr   = mbi->mmap_addr;
    uint32 mmap_len    = mbi->mmap_len;
  201111:	8b 4a 2c             	mov    0x2c(%edx),%ecx
    uint32 mods_addr   = mbi->mods_addr;
    uint32 mods_count  = mbi->mods_count;

    if (flags & Multiboot::CMDLINE)
  201114:	f6 c3 04             	test   $0x4,%bl

    uint32 flags       = mbi->flags;
    uint32 cmdline     = mbi->cmdline;
    uint32 mmap_addr   = mbi->mmap_addr;
    uint32 mmap_len    = mbi->mmap_len;
    uint32 mods_addr   = mbi->mods_addr;
  201117:	8b 72 18             	mov    0x18(%edx),%esi
    uint32 mods_count  = mbi->mods_count;
  20111a:	8b 7a 14             	mov    0x14(%edx),%edi

    if (flags & Multiboot::CMDLINE)
  20111d:	74 0b                	je     20112a <_ZN3Hip5buildEm+0xb4>
  20111f:	89 0c 24             	mov    %ecx,(%esp)
        Cmdline::init (cmdline);
  201122:	e8 2f fa ff ff       	call   200b56 <_ZN7Cmdline4initEm>
  201127:	8b 0c 24             	mov    (%esp),%ecx

    Hip_mem *mem = h->mem_desc;

    if (flags & Multiboot::MEMORY_MAP)
  20112a:	f6 c3 40             	test   $0x40,%bl
    uint32 mods_count  = mbi->mods_count;

    if (flags & Multiboot::CMDLINE)
        Cmdline::init (cmdline);

    Hip_mem *mem = h->mem_desc;
  20112d:	c7 44 24 04 38 e2 01 	movl   $0xc001e238,0x4(%esp)
  201134:	c0 

    if (flags & Multiboot::MEMORY_MAP)
  201135:	74 0b                	je     201142 <_ZN3Hip5buildEm+0xcc>
        add_mem (mem, mmap_addr, mmap_len);
  201137:	89 ea                	mov    %ebp,%edx
  201139:	8d 44 24 04          	lea    0x4(%esp),%eax
  20113d:	e8 40 fe ff ff       	call   200f82 <_ZN3Hip7add_memERP7Hip_memmj>

    if (flags & Multiboot::MODULES)
  201142:	f6 c3 08             	test   $0x8,%bl
  201145:	74 0d                	je     201154 <_ZN3Hip5buildEm+0xde>
        add_mod (mem, mods_addr, mods_count);
  201147:	89 f9                	mov    %edi,%ecx
  201149:	89 f2                	mov    %esi,%edx
  20114b:	8d 44 24 04          	lea    0x4(%esp),%eax
  20114f:	e8 82 fe ff ff       	call   200fd6 <_ZN3Hip7add_modERP7Hip_memmj>

    add_mhv (mem);
  201154:	8d 44 24 04          	lea    0x4(%esp),%eax
  201158:	e8 e5 fe ff ff       	call   201042 <_ZN3Hip7add_mhvERP7Hip_mem>

    h->length = static_cast<uint16>(reinterpret_cast<mword>(mem) - reinterpret_cast<mword>(h));
  20115d:	8b 44 24 04          	mov    0x4(%esp),%eax
  201161:	2d 00 e0 01 c0       	sub    $0xc001e000,%eax
  201166:	66 a3 06 e0 01 c0    	mov    %ax,0xc001e006
}
  20116c:	83 c4 08             	add    $0x8,%esp
  20116f:	5b                   	pop    %ebx
  201170:	5e                   	pop    %esi
  201171:	5f                   	pop    %edi
  201172:	5d                   	pop    %ebp
  201173:	c3                   	ret    

00201174 <_ZN3Idt5buildEv>:

void Idt::build()
{
    mword *ptr = handlers;

    for (unsigned vector = 0; vector < VEC_MAX; vector++, ptr++)
  201174:	31 d2                	xor    %edx,%edx
        if (*ptr)
  201176:	8b 04 95 ac 9f 01 c0 	mov    -0x3ffe6054(,%edx,4),%eax
  20117d:	85 c0                	test   %eax,%eax
  20117f:	74 2e                	je     2011af <_ZN3Idt5buildEv+0x3b>
        uint32 val[sizeof (mword) / 2];

        ALWAYS_INLINE
        inline void set (Type type, unsigned dpl, unsigned selector, mword offset)
        {
            val[0] = static_cast<uint32>(selector << 16 | (offset & 0xffff));
  201181:	89 c1                	mov    %eax,%ecx
  201183:	81 e1 fc ff 00 00    	and    $0xfffc,%ecx
  201189:	81 c9 00 00 08 00    	or     $0x80000,%ecx
  20118f:	89 0c d5 08 ab 01 c0 	mov    %ecx,-0x3ffe54f8(,%edx,8)
            val[1] = static_cast<uint32>((offset & 0xffff0000) | 1u << 15 | dpl << 13 | type);
  201196:	89 c1                	mov    %eax,%ecx
            idt[vector].set (SYS_INTR_GATE, *ptr & 3, SEL_KERN_CODE, *ptr & ~3);
  201198:	83 e0 03             	and    $0x3,%eax
  20119b:	66 31 c9             	xor    %cx,%cx
  20119e:	80 cd 8e             	or     $0x8e,%ch
  2011a1:	c1 e0 0d             	shl    $0xd,%eax
  2011a4:	09 c8                	or     %ecx,%eax
  2011a6:	89 04 d5 0c ab 01 c0 	mov    %eax,-0x3ffe54f4(,%edx,8)
  2011ad:	eb 16                	jmp    2011c5 <_ZN3Idt5buildEv+0x51>
        uint32 val[sizeof (mword) / 2];

        ALWAYS_INLINE
        inline void set (Type type, unsigned dpl, unsigned selector, mword offset)
        {
            val[0] = static_cast<uint32>(selector << 16 | (offset & 0xffff));
  2011af:	c7 04 d5 08 ab 01 c0 	movl   $0x400000,-0x3ffe54f8(,%edx,8)
  2011b6:	00 00 40 00 
            val[1] = static_cast<uint32>((offset & 0xffff0000) | 1u << 15 | dpl << 13 | type);
  2011ba:	c7 04 d5 0c ab 01 c0 	movl   $0x8500,-0x3ffe54f4(,%edx,8)
  2011c1:	00 85 00 00 

void Idt::build()
{
    mword *ptr = handlers;

    for (unsigned vector = 0; vector < VEC_MAX; vector++, ptr++)
  2011c5:	42                   	inc    %edx
  2011c6:	81 fa aa 00 00 00    	cmp    $0xaa,%edx
  2011cc:	75 a8                	jne    201176 <_ZN3Idt5buildEv+0x2>
        if (*ptr)
            idt[vector].set (SYS_INTR_GATE, *ptr & 3, SEL_KERN_CODE, *ptr & ~3);
        else
            idt[vector].set (SYS_TASK_GATE, 0, SEL_TSS_DBF, 0);
}
  2011ce:	c3                   	ret    

002011cf <kern_ptab_setup>:
#include "keyb.hpp"
#include "pd.hpp"

extern "C" INIT
mword kern_ptab_setup()
{
  2011cf:	50                   	push   %eax
    Hptp hpt;

    // Allocate and map cpu page
    hpt.update (Pd::kern.quota, CPU_LOCAL_DATA, 0,
                Buddy::ptr_to_phys (Buddy::allocator.alloc (0, Pd::kern.quota, Buddy::FILL_0)),
                Hpt::HPT_NX | Hpt::HPT_G | Hpt::HPT_W | Hpt::HPT_P);
  2011d0:	b9 50 b4 01 c0       	mov    $0xc001b450,%ecx
  2011d5:	31 d2                	xor    %edx,%edx
  2011d7:	b8 54 a3 01 c0       	mov    $0xc001a354,%eax

        void free_up (Quota &quota, unsigned l, P *, mword, bool (*) (Paddr, mword, unsigned), bool (*) (unsigned, mword));

    public:

        Pte() : val(0) {}
  2011dc:	c7 04 24 00 00 00 00 	movl   $0x0,(%esp)
  2011e3:	6a 01                	push   $0x1
  2011e5:	e8 22 02 e0 bf       	call   c000140c <_ZN5Buddy5allocEtR5QuotaNS_4FillE>
  2011ea:	b9 00 f0 ff cf       	mov    $0xcffff000,%ecx
  2011ef:	ba 50 b4 01 c0       	mov    $0xc001b450,%edx
  2011f4:	6a 00                	push   $0x0
  2011f6:	68 03 01 00 00       	push   $0x103
  2011fb:	2d 00 00 c0 bf       	sub    $0xbfc00000,%eax
  201200:	50                   	push   %eax
  201201:	6a 00                	push   $0x0
  201203:	8d 44 24 14          	lea    0x14(%esp),%eax
  201207:	e8 b4 ce e0 bf       	call   c000e0c0 <_ZN3PteI3HptmLj2ELj10ELb0EE6updateER5QuotammmmNS1_4TypeE>

    // Allocate and map kernel stack
    hpt.update (Pd::kern.quota, CPU_LOCAL_STCK, 0,
                Buddy::ptr_to_phys (Buddy::allocator.alloc (0, Pd::kern.quota, Buddy::FILL_0)),
                Hpt::HPT_NX | Hpt::HPT_G | Hpt::HPT_W | Hpt::HPT_P);
  20120c:	b9 50 b4 01 c0       	mov    $0xc001b450,%ecx
  201211:	31 d2                	xor    %edx,%edx
  201213:	6a 01                	push   $0x1
  201215:	b8 54 a3 01 c0       	mov    $0xc001a354,%eax
  20121a:	e8 ed 01 e0 bf       	call   c000140c <_ZN5Buddy5allocEtR5QuotaNS_4FillE>
  20121f:	b9 00 d0 ff cf       	mov    $0xcfffd000,%ecx
  201224:	ba 50 b4 01 c0       	mov    $0xc001b450,%edx
  201229:	6a 00                	push   $0x0
  20122b:	68 03 01 00 00       	push   $0x103
  201230:	2d 00 00 c0 bf       	sub    $0xbfc00000,%eax
  201235:	50                   	push   %eax
  201236:	6a 00                	push   $0x0
  201238:	8d 44 24 28          	lea    0x28(%esp),%eax
  20123c:	e8 7f ce e0 bf       	call   c000e0c0 <_ZN3PteI3HptmLj2ELj10ELb0EE6updateER5QuotammmmNS1_4TypeE>

    // Sync kernel code and data
    hpt.sync_master_range (Pd::kern.quota, LINK_ADDR, CPU_LOCAL);
  201241:	83 c4 28             	add    $0x28,%esp
  201244:	b9 00 00 00 c0       	mov    $0xc0000000,%ecx
  201249:	68 00 00 c0 cf       	push   $0xcfc00000
  20124e:	ba 50 b4 01 c0       	mov    $0xc001b450,%edx
  201253:	8d 44 24 04          	lea    0x4(%esp),%eax
  201257:	e8 f0 48 e0 bf       	call   c0005b4c <_ZN3Hpt17sync_master_rangeER5Quotamm>
            PTE_S   = HPT_S,
            PTE_N   = HPT_A | HPT_U | HPT_W | HPT_P,
        };

        ALWAYS_INLINE
        inline Paddr addr() const { return static_cast<Paddr>(val) & ~PAGE_MASK; }
  20125c:	8b 44 24 04          	mov    0x4(%esp),%eax

    return hpt.addr();
}
  201260:	83 c4 08             	add    $0x8,%esp
  201263:	25 00 f0 ff ff       	and    $0xfffff000,%eax
  201268:	c3                   	ret    

00201269 <init>:

extern "C" INIT REGPARM (1)
void init (mword mbi)
{
  201269:	57                   	push   %edi
  20126a:	ba 00 10 00 00       	mov    $0x1000,%edx
  20126f:	56                   	push   %esi
  201270:	bf 00 c0 01 c0       	mov    $0xc001c000,%edi
  201275:	53                   	push   %ebx
  201276:	89 d1                	mov    %edx,%ecx
  201278:	89 c3                	mov    %eax,%ebx
  20127a:	31 c0                	xor    %eax,%eax
  20127c:	f3 aa                	rep stos %al,%es:(%edi)
  20127e:	bf 00 d0 01 c0       	mov    $0xc001d000,%edi
  201283:	89 d1                	mov    %edx,%ecx
  201285:	83 c8 ff             	or     $0xffffffff,%eax
  201288:	f3 aa                	rep stos %al,%es:(%edi)
    // Setup 0-page and 1-page
    memset (reinterpret_cast<void *>(&PAGE_0),  0,  PAGE_SIZE);
    memset (reinterpret_cast<void *>(&PAGE_1), ~0u, PAGE_SIZE);

    for (void (**func)() = &CTORS_G; func != &CTORS_E; (*func++)()) ;
  20128a:	be 5c 9f 01 c0       	mov    $0xc0019f5c,%esi
  20128f:	81 fe a8 9f 01 c0    	cmp    $0xc0019fa8,%esi
  201295:	74 08                	je     20129f <init+0x36>
  201297:	83 c6 04             	add    $0x4,%esi
  20129a:	ff 56 fc             	call   *-0x4(%esi)
  20129d:	eb f0                	jmp    20128f <init+0x26>

    Hip::build (mbi);
  20129f:	89 d8                	mov    %ebx,%eax

    for (void (**func)() = &CTORS_C; func != &CTORS_G; (*func++)()) ;
  2012a1:	bb 54 9f 01 c0       	mov    $0xc0019f54,%ebx
    memset (reinterpret_cast<void *>(&PAGE_0),  0,  PAGE_SIZE);
    memset (reinterpret_cast<void *>(&PAGE_1), ~0u, PAGE_SIZE);

    for (void (**func)() = &CTORS_G; func != &CTORS_E; (*func++)()) ;

    Hip::build (mbi);
  2012a6:	e8 cb fd ff ff       	call   201076 <_ZN3Hip5buildEm>

    for (void (**func)() = &CTORS_C; func != &CTORS_G; (*func++)()) ;
  2012ab:	81 fb 5c 9f 01 c0    	cmp    $0xc0019f5c,%ebx
  2012b1:	74 08                	je     2012bb <init+0x52>
  2012b3:	83 c3 04             	add    $0x4,%ebx
  2012b6:	ff 53 fc             	call   *-0x4(%ebx)
  2012b9:	eb f0                	jmp    2012ab <init+0x42>

    // Now we're ready to talk to the world
    Console::print ("\fNOVA Microhypervisor v%d-%07lx (%s): %s %s [%s]\n", CFG_VER, reinterpret_cast<mword>(&GIT_VER), ARCH, __DATE__, __TIME__, COMPILER_STRING);
  2012bb:	68 af 71 01 c0       	push   $0xc00171af
  2012c0:	68 b9 71 01 c0       	push   $0xc00171b9
  2012c5:	68 c2 71 01 c0       	push   $0xc00171c2
  2012ca:	68 ce 71 01 c0       	push   $0xc00171ce
  2012cf:	68 82 78 3e 02       	push   $0x23e7882
  2012d4:	6a 07                	push   $0x7
  2012d6:	68 d5 71 01 c0       	push   $0xc00171d5
  2012db:	e8 fe 06 e0 bf       	call   c00019de <_ZN7Console5printEPKcz>

    Idt::build();
  2012e0:	e8 8f fe ff ff       	call   201174 <_ZN3Idt5buildEv>
    Gsi::setup();
  2012e5:	e8 1e fc ff ff       	call   200f08 <_ZN3Gsi5setupEv>
    Acpi::setup();
  2012ea:	e8 11 ed ff ff       	call   200000 <_ZN4Acpi5setupEv>

    Console_vga::con.setup();
  2012ef:	b8 a0 a3 01 c0       	mov    $0xc001a3a0,%eax
  2012f4:	e8 a1 f9 ff ff       	call   200c9a <_ZN11Console_vga5setupEv>

    Keyb::init();
  2012f9:	83 c4 1c             	add    $0x1c,%esp
}
  2012fc:	5b                   	pop    %ebx
  2012fd:	5e                   	pop    %esi
  2012fe:	5f                   	pop    %edi
    Gsi::setup();
    Acpi::setup();

    Console_vga::con.setup();

    Keyb::init();
  2012ff:	e9 8e 00 00 00       	jmp    201392 <_ZN4Keyb4initEv>

00201304 <_ZN6IoapicC1Emjj>:
INIT_PRIORITY (PRIO_SLAB)
Slab_cache Ioapic::cache (sizeof (Ioapic), 8);

Ioapic *Ioapic::list;

Ioapic::Ioapic (Paddr p, unsigned i, unsigned g) : List<Ioapic> (list), reg_base ((hwdev_addr -= PAGE_SIZE) | (p & PAGE_MASK)), gsi_base (g), id (i), rid (0)
  201304:	56                   	push   %esi
  201305:	be 58 b0 01 c0       	mov    $0xc001b058,%esi
  20130a:	53                   	push   %ebx
  20130b:	89 c3                	mov    %eax,%ebx
    protected:
        T *next;

    public:
        ALWAYS_INLINE
        explicit inline List (T *&list) : next (nullptr)
  20130d:	c7 00 00 00 00 00    	movl   $0x0,(%eax)
        {
            T **ptr; for (ptr = &list; *ptr; ptr = &(*ptr)->next) ; *ptr = static_cast<T *>(this);
  201313:	a1 58 b0 01 c0       	mov    0xc001b058,%eax
  201318:	85 c0                	test   %eax,%eax
  20131a:	74 06                	je     201322 <_ZN6IoapicC1Emjj+0x1e>
  20131c:	89 c6                	mov    %eax,%esi
  20131e:	8b 00                	mov    (%eax),%eax
  201320:	eb f6                	jmp    201318 <_ZN6IoapicC1Emjj+0x14>
  201322:	89 1e                	mov    %ebx,(%esi)
  201324:	89 d6                	mov    %edx,%esi
{
    Pd::kern.Space_mem::delreg (Pd::kern.quota, p & ~PAGE_MASK);
  201326:	81 e2 00 f0 ff ff    	and    $0xfffff000,%edx
INIT_PRIORITY (PRIO_SLAB)
Slab_cache Ioapic::cache (sizeof (Ioapic), 8);

Ioapic *Ioapic::list;

Ioapic::Ioapic (Paddr p, unsigned i, unsigned g) : List<Ioapic> (list), reg_base ((hwdev_addr -= PAGE_SIZE) | (p & PAGE_MASK)), gsi_base (g), id (i), rid (0)
  20132c:	a1 58 a2 01 c0       	mov    0xc001a258,%eax
  201331:	81 e6 ff 0f 00 00    	and    $0xfff,%esi
  201337:	89 4b 0c             	mov    %ecx,0xc(%ebx)
{
    Pd::kern.Space_mem::delreg (Pd::kern.quota, p & ~PAGE_MASK);
  20133a:	89 d1                	mov    %edx,%ecx
INIT_PRIORITY (PRIO_SLAB)
Slab_cache Ioapic::cache (sizeof (Ioapic), 8);

Ioapic *Ioapic::list;

Ioapic::Ioapic (Paddr p, unsigned i, unsigned g) : List<Ioapic> (list), reg_base ((hwdev_addr -= PAGE_SIZE) | (p & PAGE_MASK)), gsi_base (g), id (i), rid (0)
  20133c:	66 c7 43 10 00 00    	movw   $0x0,0x10(%ebx)
  201342:	66 c7 43 12 00 00    	movw   $0x0,0x12(%ebx)
  201348:	2d 00 10 00 00       	sub    $0x1000,%eax
  20134d:	a3 58 a2 01 c0       	mov    %eax,0xc001a258
  201352:	09 f0                	or     %esi,%eax
{
    Pd::kern.Space_mem::delreg (Pd::kern.quota, p & ~PAGE_MASK);
  201354:	89 d6                	mov    %edx,%esi
INIT_PRIORITY (PRIO_SLAB)
Slab_cache Ioapic::cache (sizeof (Ioapic), 8);

Ioapic *Ioapic::list;

Ioapic::Ioapic (Paddr p, unsigned i, unsigned g) : List<Ioapic> (list), reg_base ((hwdev_addr -= PAGE_SIZE) | (p & PAGE_MASK)), gsi_base (g), id (i), rid (0)
  201356:	89 43 04             	mov    %eax,0x4(%ebx)
  201359:	8b 44 24 0c          	mov    0xc(%esp),%eax
{
    Pd::kern.Space_mem::delreg (Pd::kern.quota, p & ~PAGE_MASK);
  20135d:	ba 50 b4 01 c0       	mov    $0xc001b450,%edx
INIT_PRIORITY (PRIO_SLAB)
Slab_cache Ioapic::cache (sizeof (Ioapic), 8);

Ioapic *Ioapic::list;

Ioapic::Ioapic (Paddr p, unsigned i, unsigned g) : List<Ioapic> (list), reg_base ((hwdev_addr -= PAGE_SIZE) | (p & PAGE_MASK)), gsi_base (g), id (i), rid (0)
  201362:	89 43 08             	mov    %eax,0x8(%ebx)
{
    Pd::kern.Space_mem::delreg (Pd::kern.quota, p & ~PAGE_MASK);
  201365:	b8 0c b3 01 c0       	mov    $0xc001b30c,%eax
  20136a:	e8 91 10 e0 bf       	call   c0002400 <_ZN5Space6delregER5Quotam>
  20136f:	8b 4b 04             	mov    0x4(%ebx),%ecx
  201372:	ba 50 b4 01 c0       	mov    $0xc001b450,%edx
  201377:	6a 00                	push   $0x0
  201379:	b8 14 b4 01 c0       	mov    $0xc001b414,%eax
  20137e:	68 13 01 00 00       	push   $0x113
  201383:	56                   	push   %esi
  201384:	6a 00                	push   $0x0
  201386:	e8 35 cd e0 bf       	call   c000e0c0 <_ZN3PteI3HptmLj2ELj10ELb0EE6updateER5QuotammmmNS1_4TypeE>
  20138b:	83 c4 10             	add    $0x10,%esp
    Pd::kern.Space_mem::insert (Pd::kern.quota, reg_base, 0, Hpt::HPT_NX | Hpt::HPT_G | Hpt::HPT_UC | Hpt::HPT_W | Hpt::HPT_P, p & ~PAGE_MASK);

    trace (TRACE_APIC, "APIC:%#lx ID:%#x VER:%#x IRT:%#x PRQ:%u GSI:%u",
           p, i, version(), irt_max(), prq(), gsi_base);
}
  20138e:	5b                   	pop    %ebx
  20138f:	5e                   	pop    %esi
  201390:	c3                   	ret    
  201391:	90                   	nop

00201392 <_ZN4Keyb4initEv>:

unsigned Keyb::gsi = ~0u;

void Keyb::init()
{
    if (!Cmdline::keyb)
  201392:	80 3d 8b a3 01 c0 00 	cmpb   $0x0,0xc001a38b
  201399:	75 01                	jne    20139c <_ZN4Keyb4initEv+0xa>
  20139b:	c3                   	ret    
        template <typename T>
        ALWAYS_INLINE
        static inline unsigned in (unsigned port)
        {
            T val;
            asm volatile ("in %w1, %0" : "=a" (val) : "Nd" (port));
  20139c:	e4 64                	in     $0x64,%al
        return;

    while (status() & STS_OUTB)
  20139e:	24 01                	and    $0x1,%al
  2013a0:	84 c0                	test   %al,%al
  2013a2:	74 04                	je     2013a8 <_ZN4Keyb4initEv+0x16>
  2013a4:	e4 60                	in     $0x60,%al
  2013a6:	eb f4                	jmp    20139c <_ZN4Keyb4initEv+0xa>
  2013a8:	a1 a4 a4 01 c0       	mov    0xc001a4a4,%eax

    gsi = Gsi::irq_to_gsi (irq);

    trace (TRACE_KEYB, "KEYB: GSI:%#x", gsi);

    Gsi::set (gsi);
  2013ad:	31 c9                	xor    %ecx,%ecx
  2013af:	31 d2                	xor    %edx,%edx
        return;

    while (status() & STS_OUTB)
        output();

    gsi = Gsi::irq_to_gsi (irq);
  2013b1:	a3 54 a2 01 c0       	mov    %eax,0xc001a254

    trace (TRACE_KEYB, "KEYB: GSI:%#x", gsi);

    Gsi::set (gsi);
  2013b6:	e9 c5 42 e0 bf       	jmp    c0005680 <_ZN3Gsi3setEjjj>
  2013bb:	90                   	nop

002013bc <_ZN4Mtrr4initEv>:

INIT_PRIORITY (PRIO_SLAB)
Slab_cache Mtrr::cache (sizeof (Mtrr), 8);

void Mtrr::init()
{
  2013bc:	55                   	push   %ebp
        template <typename T>
        ALWAYS_INLINE
        static inline T read (Register msr)
        {
            mword h, l;
            asm volatile ("rdmsr" : "=a" (l), "=d" (h) : "c" (msr));
  2013bd:	b9 fe 00 00 00       	mov    $0xfe,%ecx
  2013c2:	57                   	push   %edi
  2013c3:	56                   	push   %esi
  2013c4:	53                   	push   %ebx
  2013c5:	52                   	push   %edx
  2013c6:	0f 32                	rdmsr  
    count = Msr::read<uint32>(Msr::IA32_MTRR_CAP) & 0xff;
  2013c8:	0f b6 c8             	movzbl %al,%ecx
  2013cb:	89 0d b8 b0 01 c0    	mov    %ecx,0xc001b0b8
  2013d1:	b9 ff 02 00 00       	mov    $0x2ff,%ecx
  2013d6:	0f 32                	rdmsr  
    dtype = Msr::read<uint32>(Msr::IA32_MTRR_DEF_TYPE) & 0xff;
  2013d8:	0f b6 c8             	movzbl %al,%ecx

    for (unsigned i = 0; i < count; i++)
  2013db:	31 f6                	xor    %esi,%esi
Slab_cache Mtrr::cache (sizeof (Mtrr), 8);

void Mtrr::init()
{
    count = Msr::read<uint32>(Msr::IA32_MTRR_CAP) & 0xff;
    dtype = Msr::read<uint32>(Msr::IA32_MTRR_DEF_TYPE) & 0xff;
  2013dd:	89 0d b4 b0 01 c0    	mov    %ecx,0xc001b0b4

    for (unsigned i = 0; i < count; i++)
  2013e3:	3b 35 b8 b0 01 c0    	cmp    0xc001b0b8,%esi
  2013e9:	73 53                	jae    20143e <_ZN4Mtrr4initEv+0x82>
  2013eb:	8d 8c 36 00 02 00 00 	lea    0x200(%esi,%esi,1),%ecx
  2013f2:	0f 32                	rdmsr  
  2013f4:	89 14 24             	mov    %edx,(%esp)
  2013f7:	89 c5                	mov    %eax,%ebp
  2013f9:	41                   	inc    %ecx
  2013fa:	0f 32                	rdmsr  
  2013fc:	89 d3                	mov    %edx,%ebx
  2013fe:	89 c7                	mov    %eax,%edi
    public:
        ALWAYS_INLINE
        explicit inline Mtrr (uint64 b, uint64 m) : List<Mtrr> (list), base (b), mask (m) {}

        ALWAYS_INLINE
        static inline void *operator new (size_t, Quota &quota) { return cache.alloc(quota); }
  201400:	ba 50 b4 01 c0       	mov    $0xc001b450,%edx
  201405:	b8 98 b0 01 c0       	mov    $0xc001b098,%eax
  20140a:	e8 67 ee e0 bf       	call   c0010276 <_ZN10Slab_cache5allocER5Quota>
  20140f:	b9 b0 b0 01 c0       	mov    $0xc001b0b0,%ecx
    protected:
        T *next;

    public:
        ALWAYS_INLINE
        explicit inline List (T *&list) : next (nullptr)
  201414:	c7 00 00 00 00 00    	movl   $0x0,(%eax)
        {
            T **ptr; for (ptr = &list; *ptr; ptr = &(*ptr)->next) ; *ptr = static_cast<T *>(this);
  20141a:	8b 15 b0 b0 01 c0    	mov    0xc001b0b0,%edx
  201420:	85 d2                	test   %edx,%edx
  201422:	74 06                	je     20142a <_ZN4Mtrr4initEv+0x6e>
  201424:	89 d1                	mov    %edx,%ecx
  201426:	8b 12                	mov    (%edx),%edx
  201428:	eb f6                	jmp    201420 <_ZN4Mtrr4initEv+0x64>
                                                       bit_scan_forward (static_cast<mword>(mask >> 32)) + 32);
        }

    public:
        ALWAYS_INLINE
        explicit inline Mtrr (uint64 b, uint64 m) : List<Mtrr> (list), base (b), mask (m) {}
  20142a:	8b 14 24             	mov    (%esp),%edx
  20142d:	46                   	inc    %esi
  20142e:	89 01                	mov    %eax,(%ecx)
  201430:	89 68 04             	mov    %ebp,0x4(%eax)
  201433:	89 78 0c             	mov    %edi,0xc(%eax)
  201436:	89 50 08             	mov    %edx,0x8(%eax)
  201439:	89 58 10             	mov    %ebx,0x10(%eax)
  20143c:	eb a5                	jmp    2013e3 <_ZN4Mtrr4initEv+0x27>
        new (Pd::kern.quota) Mtrr (Msr::read<uint64>(Msr::Register (Msr::IA32_MTRR_PHYS_BASE + 2 * i)),
                                   Msr::read<uint64>(Msr::Register (Msr::IA32_MTRR_PHYS_MASK + 2 * i)));
}
  20143e:	58                   	pop    %eax
  20143f:	5b                   	pop    %ebx
  201440:	5e                   	pop    %esi
  201441:	5f                   	pop    %edi
  201442:	5d                   	pop    %ebp
  201443:	c3                   	ret    

00201444 <_ZN4Mtrr7memtypeEyRy>:

unsigned Mtrr::memtype (uint64 phys, uint64 &next)
{
  201444:	55                   	push   %ebp
  201445:	57                   	push   %edi
  201446:	56                   	push   %esi
  201447:	53                   	push   %ebx
  201448:	89 cb                	mov    %ecx,%ebx
  20144a:	83 ec 1c             	sub    $0x1c,%esp
  20144d:	89 54 24 04          	mov    %edx,0x4(%esp)
    if (phys < 0x80000) {
  201451:	83 7c 24 04 00       	cmpl   $0x0,0x4(%esp)
        new (Pd::kern.quota) Mtrr (Msr::read<uint64>(Msr::Register (Msr::IA32_MTRR_PHYS_BASE + 2 * i)),
                                   Msr::read<uint64>(Msr::Register (Msr::IA32_MTRR_PHYS_MASK + 2 * i)));
}

unsigned Mtrr::memtype (uint64 phys, uint64 &next)
{
  201456:	89 04 24             	mov    %eax,(%esp)
    if (phys < 0x80000) {
  201459:	0f 87 e9 00 00 00    	ja     201548 <_ZN4Mtrr7memtypeEyRy+0x104>
  20145f:	81 3c 24 ff ff 07 00 	cmpl   $0x7ffff,(%esp)
  201466:	77 2e                	ja     201496 <_ZN4Mtrr7memtypeEyRy+0x52>
        next = 1 + (phys | 0xffff);
  201468:	8b 34 24             	mov    (%esp),%esi
  20146b:	8b 54 24 04          	mov    0x4(%esp),%edx
  20146f:	81 ce ff ff 00 00    	or     $0xffff,%esi
  201475:	89 f0                	mov    %esi,%eax
  201477:	83 c0 01             	add    $0x1,%eax
  20147a:	83 d2 00             	adc    $0x0,%edx
  20147d:	89 01                	mov    %eax,(%ecx)
  20147f:	89 51 04             	mov    %edx,0x4(%ecx)
  201482:	b9 50 02 00 00       	mov    $0x250,%ecx
  201487:	0f 32                	rdmsr  
        return static_cast<unsigned>(Msr::read<uint64>(Msr::IA32_MTRR_FIX64K_BASE) >>
                                    (phys >> 13 & 0x38)) & 0xff;
  201489:	8b 0c 24             	mov    (%esp),%ecx
  20148c:	8b 5c 24 04          	mov    0x4(%esp),%ebx
  201490:	0f ac d9 0d          	shrd   $0xd,%ebx,%ecx
  201494:	eb 4f                	jmp    2014e5 <_ZN4Mtrr7memtypeEyRy+0xa1>
    }

    if (phys < 0xc0000) {
  201496:	83 7c 24 04 00       	cmpl   $0x0,0x4(%esp)
  20149b:	0f 87 a7 00 00 00    	ja     201548 <_ZN4Mtrr7memtypeEyRy+0x104>
  2014a1:	81 3c 24 ff ff 0b 00 	cmpl   $0xbffff,(%esp)
  2014a8:	77 51                	ja     2014fb <_ZN4Mtrr7memtypeEyRy+0xb7>
        next = 1 + (phys | 0x3fff);
  2014aa:	8b 34 24             	mov    (%esp),%esi
  2014ad:	8b 54 24 04          	mov    0x4(%esp),%edx
        return static_cast<unsigned>(Msr::read<uint64>(Msr::Register (Msr::IA32_MTRR_FIX16K_BASE + (phys >> 17 & 0x1))) >>
  2014b1:	8b 5c 24 04          	mov    0x4(%esp),%ebx
        return static_cast<unsigned>(Msr::read<uint64>(Msr::IA32_MTRR_FIX64K_BASE) >>
                                    (phys >> 13 & 0x38)) & 0xff;
    }

    if (phys < 0xc0000) {
        next = 1 + (phys | 0x3fff);
  2014b5:	81 ce ff 3f 00 00    	or     $0x3fff,%esi
  2014bb:	89 f0                	mov    %esi,%eax
  2014bd:	83 c0 01             	add    $0x1,%eax
  2014c0:	83 d2 00             	adc    $0x0,%edx
  2014c3:	89 01                	mov    %eax,(%ecx)
  2014c5:	89 51 04             	mov    %edx,0x4(%ecx)
        return static_cast<unsigned>(Msr::read<uint64>(Msr::Register (Msr::IA32_MTRR_FIX16K_BASE + (phys >> 17 & 0x1))) >>
  2014c8:	8b 0c 24             	mov    (%esp),%ecx
  2014cb:	0f ac d9 11          	shrd   $0x11,%ebx,%ecx
  2014cf:	83 e1 01             	and    $0x1,%ecx
  2014d2:	81 c1 58 02 00 00    	add    $0x258,%ecx
  2014d8:	0f 32                	rdmsr  
                                    (phys >> 11 & 0x38)) & 0xff;
  2014da:	8b 0c 24             	mov    (%esp),%ecx
  2014dd:	8b 5c 24 04          	mov    0x4(%esp),%ebx
  2014e1:	0f ac d9 0b          	shrd   $0xb,%ebx,%ecx
                                    (phys >> 13 & 0x38)) & 0xff;
    }

    if (phys < 0xc0000) {
        next = 1 + (phys | 0x3fff);
        return static_cast<unsigned>(Msr::read<uint64>(Msr::Register (Msr::IA32_MTRR_FIX16K_BASE + (phys >> 17 & 0x1))) >>
  2014e5:	83 e1 38             	and    $0x38,%ecx
  2014e8:	0f ad d0             	shrd   %cl,%edx,%eax
  2014eb:	d3 ea                	shr    %cl,%edx
  2014ed:	f6 c1 20             	test   $0x20,%cl
  2014f0:	0f 45 c2             	cmovne %edx,%eax
                                    (phys >> 11 & 0x38)) & 0xff;
  2014f3:	0f b6 c0             	movzbl %al,%eax
  2014f6:	e9 76 01 00 00       	jmp    201671 <_ZN4Mtrr7memtypeEyRy+0x22d>
    }

    if (phys < 0x100000) {
  2014fb:	83 7c 24 04 00       	cmpl   $0x0,0x4(%esp)
  201500:	77 46                	ja     201548 <_ZN4Mtrr7memtypeEyRy+0x104>
  201502:	81 3c 24 ff ff 0f 00 	cmpl   $0xfffff,(%esp)
  201509:	77 3d                	ja     201548 <_ZN4Mtrr7memtypeEyRy+0x104>
        next = 1 + (phys | 0xfff);
  20150b:	8b 34 24             	mov    (%esp),%esi
  20150e:	8b 54 24 04          	mov    0x4(%esp),%edx
        return static_cast<unsigned>(Msr::read<uint64>(Msr::Register (Msr::IA32_MTRR_FIX4K_BASE  + (phys >> 15 & 0x7))) >>
  201512:	8b 5c 24 04          	mov    0x4(%esp),%ebx
        return static_cast<unsigned>(Msr::read<uint64>(Msr::Register (Msr::IA32_MTRR_FIX16K_BASE + (phys >> 17 & 0x1))) >>
                                    (phys >> 11 & 0x38)) & 0xff;
    }

    if (phys < 0x100000) {
        next = 1 + (phys | 0xfff);
  201516:	81 ce ff 0f 00 00    	or     $0xfff,%esi
  20151c:	89 f0                	mov    %esi,%eax
  20151e:	83 c0 01             	add    $0x1,%eax
  201521:	83 d2 00             	adc    $0x0,%edx
  201524:	89 01                	mov    %eax,(%ecx)
  201526:	89 51 04             	mov    %edx,0x4(%ecx)
        return static_cast<unsigned>(Msr::read<uint64>(Msr::Register (Msr::IA32_MTRR_FIX4K_BASE  + (phys >> 15 & 0x7))) >>
  201529:	8b 0c 24             	mov    (%esp),%ecx
  20152c:	0f ac d9 0f          	shrd   $0xf,%ebx,%ecx
  201530:	83 e1 07             	and    $0x7,%ecx
  201533:	81 c1 68 02 00 00    	add    $0x268,%ecx
  201539:	0f 32                	rdmsr  
                                    (phys >>  9 & 0x38)) & 0xff;
  20153b:	8b 0c 24             	mov    (%esp),%ecx
  20153e:	8b 5c 24 04          	mov    0x4(%esp),%ebx
  201542:	0f ac d9 09          	shrd   $0x9,%ebx,%ecx
  201546:	eb 9d                	jmp    2014e5 <_ZN4Mtrr7memtypeEyRy+0xa1>
    }

    unsigned type = ~0U; next = ~0ULL;
  201548:	c7 03 ff ff ff ff    	movl   $0xffffffff,(%ebx)

    for (Mtrr *mtrr = list; mtrr; mtrr = mtrr->next) {
  20154e:	8b 35 b0 b0 01 c0    	mov    0xc001b0b0,%esi
        next = 1 + (phys | 0xfff);
        return static_cast<unsigned>(Msr::read<uint64>(Msr::Register (Msr::IA32_MTRR_FIX4K_BASE  + (phys >> 15 & 0x7))) >>
                                    (phys >>  9 & 0x38)) & 0xff;
    }

    unsigned type = ~0U; next = ~0ULL;
  201554:	c7 43 04 ff ff ff ff 	movl   $0xffffffff,0x4(%ebx)
  20155b:	c7 44 24 10 ff ff ff 	movl   $0xffffffff,0x10(%esp)
  201562:	ff 

    for (Mtrr *mtrr = list; mtrr; mtrr = mtrr->next) {
  201563:	85 f6                	test   %esi,%esi
  201565:	0f 84 f6 00 00 00    	je     201661 <_ZN4Mtrr7memtypeEyRy+0x21d>

        if (!(mtrr->mask & 0x800))
  20156b:	8b 7e 0c             	mov    0xc(%esi),%edi
  20156e:	8b 6e 10             	mov    0x10(%esi),%ebp
  201571:	89 f8                	mov    %edi,%eax
  201573:	25 00 08 00 00       	and    $0x800,%eax
  201578:	85 c0                	test   %eax,%eax
  20157a:	0f 84 da 00 00 00    	je     20165a <_ZN4Mtrr7memtypeEyRy+0x216>
            continue;

        uint64 base = mtrr->base & ~PAGE_MASK;
  201580:	8b 56 04             	mov    0x4(%esi),%edx
  201583:	8b 46 08             	mov    0x8(%esi),%eax
  201586:	89 d1                	mov    %edx,%ecx
  201588:	81 e1 00 f0 ff ff    	and    $0xfffff000,%ecx

        if (phys < base)
  20158e:	39 44 24 04          	cmp    %eax,0x4(%esp)
    for (Mtrr *mtrr = list; mtrr; mtrr = mtrr->next) {

        if (!(mtrr->mask & 0x800))
            continue;

        uint64 base = mtrr->base & ~PAGE_MASK;
  201592:	89 4c 24 08          	mov    %ecx,0x8(%esp)
  201596:	89 44 24 0c          	mov    %eax,0xc(%esp)

        if (phys < base)
  20159a:	77 30                	ja     2015cc <_ZN4Mtrr7memtypeEyRy+0x188>
  20159c:	72 09                	jb     2015a7 <_ZN4Mtrr7memtypeEyRy+0x163>
  20159e:	8b 4c 24 08          	mov    0x8(%esp),%ecx
  2015a2:	39 0c 24             	cmp    %ecx,(%esp)
  2015a5:	73 25                	jae    2015cc <_ZN4Mtrr7memtypeEyRy+0x188>
  2015a7:	8b 43 04             	mov    0x4(%ebx),%eax
  2015aa:	3b 44 24 0c          	cmp    0xc(%esp),%eax
  2015ae:	8b 13                	mov    (%ebx),%edx
  2015b0:	72 10                	jb     2015c2 <_ZN4Mtrr7memtypeEyRy+0x17e>
  2015b2:	77 06                	ja     2015ba <_ZN4Mtrr7memtypeEyRy+0x176>
  2015b4:	3b 54 24 08          	cmp    0x8(%esp),%edx
  2015b8:	76 08                	jbe    2015c2 <_ZN4Mtrr7memtypeEyRy+0x17e>
  2015ba:	8b 54 24 08          	mov    0x8(%esp),%edx
  2015be:	8b 44 24 0c          	mov    0xc(%esp),%eax
            next = min (next, base);
  2015c2:	89 13                	mov    %edx,(%ebx)
  2015c4:	89 43 04             	mov    %eax,0x4(%ebx)
  2015c7:	e9 8e 00 00 00       	jmp    20165a <_ZN4Mtrr7memtypeEyRy+0x216>

        else if (((phys ^ mtrr->base) & mtrr->mask) >> PAGE_BITS == 0) {
  2015cc:	33 14 24             	xor    (%esp),%edx
  2015cf:	33 44 24 04          	xor    0x4(%esp),%eax
  2015d3:	21 fa                	and    %edi,%edx
  2015d5:	21 e8                	and    %ebp,%eax
  2015d7:	89 54 24 14          	mov    %edx,0x14(%esp)
  2015db:	89 44 24 18          	mov    %eax,0x18(%esp)
  2015df:	8b 44 24 14          	mov    0x14(%esp),%eax
  2015e3:	8b 54 24 18          	mov    0x18(%esp),%edx
  2015e7:	0f ac d0 0c          	shrd   $0xc,%edx,%eax
  2015eb:	c1 ea 0c             	shr    $0xc,%edx
  2015ee:	89 d1                	mov    %edx,%ecx
  2015f0:	09 c1                	or     %eax,%ecx
  2015f2:	75 66                	jne    20165a <_ZN4Mtrr7memtypeEyRy+0x216>
        static Mtrr *       list;
        static Slab_cache   cache;

        uint64 size() const
        {
            return 1ULL << (static_cast<mword>(mask) ? bit_scan_forward (static_cast<mword>(mask >> 12)) + 12 :
  2015f4:	85 ff                	test   %edi,%edi
  2015f6:	74 13                	je     20160b <_ZN4Mtrr7memtypeEyRy+0x1c7>
  2015f8:	0f ac ef 0c          	shrd   $0xc,%ebp,%edi

ALWAYS_INLINE
inline long int bit_scan_forward (mword val)
{
    if (EXPECT_FALSE (!val))
        return -1;
  2015fc:	83 c9 ff             	or     $0xffffffff,%ecx
}

ALWAYS_INLINE
inline long int bit_scan_forward (mword val)
{
    if (EXPECT_FALSE (!val))
  2015ff:	85 ff                	test   %edi,%edi
  201601:	74 03                	je     201606 <_ZN4Mtrr7memtypeEyRy+0x1c2>
        return -1;

    asm volatile ("bsf %1, %0" : "=r" (val) : "rm" (val));

    return val;
  201603:	0f bc cf             	bsf    %edi,%ecx
  201606:	83 c1 0c             	add    $0xc,%ecx
  201609:	eb 0d                	jmp    201618 <_ZN4Mtrr7memtypeEyRy+0x1d4>

ALWAYS_INLINE
inline long int bit_scan_forward (mword val)
{
    if (EXPECT_FALSE (!val))
        return -1;
  20160b:	83 c9 ff             	or     $0xffffffff,%ecx
}

ALWAYS_INLINE
inline long int bit_scan_forward (mword val)
{
    if (EXPECT_FALSE (!val))
  20160e:	85 ed                	test   %ebp,%ebp
  201610:	74 03                	je     201615 <_ZN4Mtrr7memtypeEyRy+0x1d1>
        return -1;

    asm volatile ("bsf %1, %0" : "=r" (val) : "rm" (val));

    return val;
  201612:	0f bc cd             	bsf    %ebp,%ecx
                                                       bit_scan_forward (static_cast<mword>(mask >> 32)) + 32);
  201615:	83 c1 20             	add    $0x20,%ecx
        static Mtrr *       list;
        static Slab_cache   cache;

        uint64 size() const
        {
            return 1ULL << (static_cast<mword>(mask) ? bit_scan_forward (static_cast<mword>(mask >> 12)) + 12 :
  201618:	31 c0                	xor    %eax,%eax
  20161a:	31 d2                	xor    %edx,%edx
  20161c:	8b 3b                	mov    (%ebx),%edi
  20161e:	f6 c1 20             	test   $0x20,%cl
  201621:	0f 94 c0             	sete   %al
  201624:	0f 95 c2             	setne  %dl
  201627:	d3 e0                	shl    %cl,%eax
  201629:	d3 e2                	shl    %cl,%edx
  20162b:	8b 4b 04             	mov    0x4(%ebx),%ecx
            next = min (next, base + mtrr->size());
  20162e:	03 44 24 08          	add    0x8(%esp),%eax
  201632:	13 54 24 0c          	adc    0xc(%esp),%edx
  201636:	39 ca                	cmp    %ecx,%edx
  201638:	72 0a                	jb     201644 <_ZN4Mtrr7memtypeEyRy+0x200>
  20163a:	77 04                	ja     201640 <_ZN4Mtrr7memtypeEyRy+0x1fc>
  20163c:	39 f8                	cmp    %edi,%eax
  20163e:	76 04                	jbe    201644 <_ZN4Mtrr7memtypeEyRy+0x200>
  201640:	89 f8                	mov    %edi,%eax
  201642:	89 ca                	mov    %ecx,%edx
  201644:	89 03                	mov    %eax,(%ebx)
  201646:	89 53 04             	mov    %edx,0x4(%ebx)
            type = min (type, static_cast<unsigned>(mtrr->base) & 0xff);
  201649:	0f b6 46 04          	movzbl 0x4(%esi),%eax
  20164d:	39 44 24 10          	cmp    %eax,0x10(%esp)
  201651:	0f 46 44 24 10       	cmovbe 0x10(%esp),%eax
  201656:	89 44 24 10          	mov    %eax,0x10(%esp)
                                    (phys >>  9 & 0x38)) & 0xff;
    }

    unsigned type = ~0U; next = ~0ULL;

    for (Mtrr *mtrr = list; mtrr; mtrr = mtrr->next) {
  20165a:	8b 36                	mov    (%esi),%esi
  20165c:	e9 02 ff ff ff       	jmp    201563 <_ZN4Mtrr7memtypeEyRy+0x11f>
            next = min (next, base + mtrr->size());
            type = min (type, static_cast<unsigned>(mtrr->base) & 0xff);
        }
    }

    return type == ~0U ? dtype : type;
  201661:	83 7c 24 10 ff       	cmpl   $0xffffffff,0x10(%esp)
  201666:	8b 44 24 10          	mov    0x10(%esp),%eax
  20166a:	0f 44 05 b4 b0 01 c0 	cmove  0xc001b0b4,%eax
}
  201671:	83 c4 1c             	add    $0x1c,%esp
  201674:	5b                   	pop    %ebx
  201675:	5e                   	pop    %esi
  201676:	5f                   	pop    %edi
  201677:	5d                   	pop    %ebp
  201678:	c3                   	ret    
  201679:	90                   	nop

0020167a <_ZN3PciC1Ejj>:

struct Pci::quirk_map Pci::map[] INITDATA =
{
};

Pci::Pci (unsigned r, unsigned l) : List<Pci> (list), reg_base (hwdev_addr -= PAGE_SIZE), rid (static_cast<uint16>(r)), lev (static_cast<uint16>(l))
  20167a:	56                   	push   %esi
  20167b:	be bc b0 01 c0       	mov    $0xc001b0bc,%esi
  201680:	53                   	push   %ebx
    protected:
        T *next;

    public:
        ALWAYS_INLINE
        explicit inline List (T *&list) : next (nullptr)
  201681:	c7 00 00 00 00 00    	movl   $0x0,(%eax)
        {
            T **ptr; for (ptr = &list; *ptr; ptr = &(*ptr)->next) ; *ptr = static_cast<T *>(this);
  201687:	8b 1d bc b0 01 c0    	mov    0xc001b0bc,%ebx
  20168d:	85 db                	test   %ebx,%ebx
  20168f:	74 06                	je     201697 <_ZN3PciC1Ejj+0x1d>
  201691:	89 de                	mov    %ebx,%esi
  201693:	8b 1b                	mov    (%ebx),%ebx
  201695:	eb f6                	jmp    20168d <_ZN3PciC1Ejj+0x13>
  201697:	89 06                	mov    %eax,(%esi)
  201699:	8b 35 58 a2 01 c0    	mov    0xc001a258,%esi
  20169f:	66 89 50 08          	mov    %dx,0x8(%eax)
  2016a3:	0f b7 d2             	movzwl %dx,%edx
{
    Pd::kern.Space_mem::insert (Pd::kern.quota, reg_base, 0, Hpt::HPT_NX | Hpt::HPT_G | Hpt::HPT_UC | Hpt::HPT_W | Hpt::HPT_P, cfg_base + (rid << PAGE_BITS));
  2016a6:	c1 e2 0c             	shl    $0xc,%edx
  2016a9:	03 15 c4 b0 01 c0    	add    0xc001b0c4,%edx

struct Pci::quirk_map Pci::map[] INITDATA =
{
};

Pci::Pci (unsigned r, unsigned l) : List<Pci> (list), reg_base (hwdev_addr -= PAGE_SIZE), rid (static_cast<uint16>(r)), lev (static_cast<uint16>(l))
  2016af:	8d 9e 00 f0 ff ff    	lea    -0x1000(%esi),%ebx
  2016b5:	89 58 04             	mov    %ebx,0x4(%eax)
  2016b8:	66 89 48 0a          	mov    %cx,0xa(%eax)
  2016bc:	89 d9                	mov    %ebx,%ecx
  2016be:	b8 14 b4 01 c0       	mov    $0xc001b414,%eax
  2016c3:	6a 00                	push   $0x0
  2016c5:	68 13 01 00 00       	push   $0x113
  2016ca:	52                   	push   %edx
  2016cb:	ba 50 b4 01 c0       	mov    $0xc001b450,%edx
  2016d0:	6a 00                	push   $0x0
  2016d2:	89 1d 58 a2 01 c0    	mov    %ebx,0xc001a258
  2016d8:	e8 e3 c9 e0 bf       	call   c000e0c0 <_ZN3PteI3HptmLj2ELj10ELb0EE6updateER5QuotammmmNS1_4TypeE>
  2016dd:	83 c4 10             	add    $0x10,%esp
    Pd::kern.Space_mem::insert (Pd::kern.quota, reg_base, 0, Hpt::HPT_NX | Hpt::HPT_G | Hpt::HPT_UC | Hpt::HPT_W | Hpt::HPT_P, cfg_base + (rid << PAGE_BITS));

    for (unsigned i = 0; i < sizeof map / sizeof *map; i++)
        if (read<uint16>(REG_VID) == map[i].vid && read<uint16>(REG_DID) == map[i].did)
            (this->*map[i].func)();
}
  2016e0:	5b                   	pop    %ebx
  2016e1:	5e                   	pop    %esi
  2016e2:	c3                   	ret    
  2016e3:	90                   	nop

002016e4 <_ZN3Pci4initEjj>:

void Pci::init (unsigned b, unsigned l)
{
  2016e4:	55                   	push   %ebp
  2016e5:	57                   	push   %edi
  2016e6:	56                   	push   %esi
  2016e7:	89 d6                	mov    %edx,%esi
  2016e9:	53                   	push   %ebx
    for (unsigned r = b << 8; r < (b + 1) << 8; r++) {
  2016ea:	89 c3                	mov    %eax,%ebx
  2016ec:	40                   	inc    %eax
        if (read<uint16>(REG_VID) == map[i].vid && read<uint16>(REG_DID) == map[i].did)
            (this->*map[i].func)();
}

void Pci::init (unsigned b, unsigned l)
{
  2016ed:	83 ec 08             	sub    $0x8,%esp
    for (unsigned r = b << 8; r < (b + 1) << 8; r++) {
  2016f0:	c1 e0 08             	shl    $0x8,%eax
  2016f3:	c1 e3 08             	shl    $0x8,%ebx
  2016f6:	89 04 24             	mov    %eax,(%esp)
        Pci *p = new (Pd::kern.quota) Pci (r, l);

        unsigned h = p->read<uint8>(REG_HDR);

        if ((h & 0x7f) == 1)
            init (p->read<uint8>(REG_SBUSN), l + 1);
  2016f9:	8d 6a 01             	lea    0x1(%edx),%ebp
            (this->*map[i].func)();
}

void Pci::init (unsigned b, unsigned l)
{
    for (unsigned r = b << 8; r < (b + 1) << 8; r++) {
  2016fc:	3b 1c 24             	cmp    (%esp),%ebx
  2016ff:	73 66                	jae    201767 <_ZN3Pci4initEjj+0x83>

        if (*static_cast<uint32 *>(Hpt::remap (Pd::kern.quota, cfg_base + (r << PAGE_BITS))) == ~0U)
  201701:	89 da                	mov    %ebx,%edx
  201703:	b8 50 b4 01 c0       	mov    $0xc001b450,%eax
  201708:	c1 e2 0c             	shl    $0xc,%edx
  20170b:	03 15 c4 b0 01 c0    	add    0xc001b0c4,%edx
  201711:	e8 d8 44 e0 bf       	call   c0005bee <_ZN3Hpt5remapER5Quotam>
  201716:	83 38 ff             	cmpl   $0xffffffff,(%eax)
  201719:	74 49                	je     201764 <_ZN3Pci4initEjj+0x80>
    public:
        INIT
        Pci (unsigned, unsigned);

        ALWAYS_INLINE
        static inline void *operator new (size_t, Quota &quota) { return cache.alloc(quota); }
  20171b:	ba 50 b4 01 c0       	mov    $0xc001b450,%edx
  201720:	b8 cc b0 01 c0       	mov    $0xc001b0cc,%eax
  201725:	e8 4c eb e0 bf       	call   c0010276 <_ZN10Slab_cache5allocER5Quota>
            continue;

        Pci *p = new (Pd::kern.quota) Pci (r, l);
  20172a:	89 f1                	mov    %esi,%ecx
  20172c:	89 da                	mov    %ebx,%edx
  20172e:	89 c7                	mov    %eax,%edi
  201730:	e8 45 ff ff ff       	call   20167a <_ZN3PciC1Ejj>
  201735:	8b 47 04             	mov    0x4(%edi),%eax
            REG_MAX         = 0xfff,
        };

        template <typename T>
        ALWAYS_INLINE
        inline unsigned read (Register r) { return *reinterpret_cast<T volatile *>(reg_base + r); }
  201738:	8a 48 0e             	mov    0xe(%eax),%cl

        unsigned h = p->read<uint8>(REG_HDR);

        if ((h & 0x7f) == 1)
  20173b:	88 ca                	mov    %cl,%dl
  20173d:	80 e2 7f             	and    $0x7f,%dl
  201740:	fe ca                	dec    %dl
  201742:	75 13                	jne    201757 <_ZN3Pci4initEjj+0x73>
  201744:	0f b6 40 19          	movzbl 0x19(%eax),%eax
            init (p->read<uint8>(REG_SBUSN), l + 1);
  201748:	89 ea                	mov    %ebp,%edx
  20174a:	88 4c 24 07          	mov    %cl,0x7(%esp)
  20174e:	e8 91 ff ff ff       	call   2016e4 <_ZN3Pci4initEjj>
  201753:	8a 4c 24 07          	mov    0x7(%esp),%cl

        if (!(r & 0x7) && !(h & 0x80))
  201757:	f6 c3 07             	test   $0x7,%bl
  20175a:	75 08                	jne    201764 <_ZN3Pci4initEjj+0x80>
            r += 7;
  20175c:	8d 43 07             	lea    0x7(%ebx),%eax
  20175f:	84 c9                	test   %cl,%cl
  201761:	0f 49 d8             	cmovns %eax,%ebx
            (this->*map[i].func)();
}

void Pci::init (unsigned b, unsigned l)
{
    for (unsigned r = b << 8; r < (b + 1) << 8; r++) {
  201764:	43                   	inc    %ebx
  201765:	eb 95                	jmp    2016fc <_ZN3Pci4initEjj+0x18>
            init (p->read<uint8>(REG_SBUSN), l + 1);

        if (!(r & 0x7) && !(h & 0x80))
            r += 7;
    }
}
  201767:	83 c4 08             	add    $0x8,%esp
  20176a:	5b                   	pop    %ebx
  20176b:	5e                   	pop    %esi
  20176c:	5f                   	pop    %edi
  20176d:	5d                   	pop    %ebp
  20176e:	c3                   	ret    
  20176f:	90                   	nop

00201770 <_ZN2PdC1EPS_>:

INIT_PRIORITY (PRIO_BUDDY)
ALIGNED(32) Pd Pd::kern (&Pd::kern);
ALIGNED(32) Pd Pd::root (&Pd::root, NUM_EXC, 0x1f);

Pd::Pd (Pd *own) : Kobject (PD, static_cast<Space_obj *>(own))
  201770:	57                   	push   %edi
  201771:	85 d2                	test   %edx,%edx
  201773:	56                   	push   %esi
  201774:	89 d6                	mov    %edx,%esi
  201776:	53                   	push   %ebx
  201777:	89 c3                	mov    %eax,%ebx
            PT,
            SM,
            INVALID,
        };

        explicit Kobject (Type t, Space *s, mword b = 0, mword a = 0, void (*f)(Rcu_elem *) = free, void (*pref)(Rcu_elem *) = nullptr ) : Mdb (s, reinterpret_cast<mword>(this), b, a, f, pref), objtype (t) {}
  201779:	6a 00                	push   $0x0
  20177b:	89 d9                	mov    %ebx,%ecx
  20177d:	68 f2 28 00 c0       	push   $0xc00028f2
  201782:	8d 82 88 01 00 00    	lea    0x188(%edx),%eax
  201788:	ba 00 00 00 00       	mov    $0x0,%edx
  20178d:	6a 00                	push   $0x0
  20178f:	0f 45 d0             	cmovne %eax,%edx
  201792:	6a 00                	push   $0x0
  201794:	89 d8                	mov    %ebx,%eax
  201796:	e8 ab 14 e0 bf       	call   c0002c46 <_ZN3MdbC1EP5SpacemmmPFvP8Rcu_elemES5_>
            bool res = !Atomic::test_set_bit (did_c[0], NO_PCID);
            assert (res);
        }

        ALWAYS_INLINE
        inline Space_mem() : cpus(0), htlb(~0UL), gtlb(~0UL)
  20179b:	8d 53 54             	lea    0x54(%ebx),%edx
  20179e:	83 c4 10             	add    $0x10,%esp
  2017a1:	c6 43 44 00          	movb   $0x0,0x44(%ebx)
  2017a5:	31 c0                	xor    %eax,%eax
  2017a7:	66 c7 43 46 00 00    	movw   $0x0,0x46(%ebx)
    private:
        uint32 ref;

    public:
        ALWAYS_INLINE
        inline Refex() : ref (1) {}
  2017ad:	c7 43 48 01 00 00 00 	movl   $0x1,0x48(%ebx)
  2017b4:	66 c7 43 4c 00 00    	movw   $0x0,0x4c(%ebx)
    private:
        Spinlock    lock;
        Avl *       tree;

    public:
        Space() : tree (nullptr) {}
  2017ba:	c7 43 50 00 00 00 00 	movl   $0x0,0x50(%ebx)
  2017c1:	c7 04 02 00 00 00 00 	movl   $0x0,(%edx,%eax,1)
  2017c8:	83 c0 04             	add    $0x4,%eax
  2017cb:	3d 00 01 00 00       	cmp    $0x100,%eax
  2017d0:	75 ef                	jne    2017c1 <_ZN2PdC1EPS_+0x51>
        {
            for (mword i = ACCESS_ONCE(did_f), j = 0; j <= LAST_PCID; i++, j++)
  2017d2:	a1 cc b4 01 c0       	mov    0xc001b4cc,%eax
  2017d7:	31 ff                	xor    %edi,%edi
  2017d9:	c7 83 54 01 00 00 00 	movl   $0x0,0x154(%ebx)
  2017e0:	00 00 00 
  2017e3:	c7 83 58 01 00 00 00 	movl   $0x0,0x158(%ebx)
  2017ea:	00 00 00 
  2017ed:	c7 83 5c 01 00 00 00 	movl   $0x0,0x15c(%ebx)
  2017f4:	00 00 00 
    private:
        mword val;

    public:
        ALWAYS_INLINE
        inline explicit Cpuset(mword v) : val (v) {}
  2017f7:	c7 83 6c 01 00 00 00 	movl   $0x0,0x16c(%ebx)
  2017fe:	00 00 00 
  201801:	c7 83 70 01 00 00 ff 	movl   $0xffffffff,0x170(%ebx)
  201808:	ff ff ff 
  20180b:	c7 83 74 01 00 00 ff 	movl   $0xffffffff,0x174(%ebx)
  201812:	ff ff ff 
            {
                i %= (LAST_PCID + 1);
  201815:	83 e0 7f             	and    $0x7f,%eax

                if (ACCESS_ONCE(did_c[i]) == ~0UL)
  201818:	8b 14 85 e0 b4 01 c0 	mov    -0x3ffe4b20(,%eax,4),%edx
  20181f:	42                   	inc    %edx
  201820:	74 56                	je     201878 <_ZN2PdC1EPS_+0x108>
}

ALWAYS_INLINE
inline long int bit_scan_forward (mword val)
{
    if (EXPECT_FALSE (!val))
  201822:	8b 0c 85 e0 b4 01 c0 	mov    -0x3ffe4b20(,%eax,4),%ecx
                    continue;

                long b = bit_scan_forward (~did_c[i]);
                if (b == -1) b = 0;
  201829:	31 d2                	xor    %edx,%edx
  20182b:	83 f1 ff             	xor    $0xffffffff,%ecx
  20182e:	74 0e                	je     20183e <_ZN2PdC1EPS_+0xce>
        return -1;

    asm volatile ("bsf %1, %0" : "=r" (val) : "rm" (val));
  201830:	0f bc d1             	bsf    %ecx,%edx
  201833:	b9 00 00 00 00       	mov    $0x0,%ecx
  201838:	83 fa ff             	cmp    $0xffffffff,%edx
  20183b:	0f 44 d1             	cmove  %ecx,%edx
        template <typename T>
        ALWAYS_INLINE
        static inline bool test_set_bit (T &val, unsigned long bit)
        {
            bool ret;
            asm volatile ("lock; bts%z1 %2, %1; setc %0" : "=q" (ret), "+m" (val) : "ir" (bit) : "cc");
  20183e:	f0 0f ab 14 85 e0 b4 	lock bts %edx,-0x3ffe4b20(,%eax,4)
  201845:	01 c0 
  201847:	0f 92 c1             	setb   %cl

                if (Atomic::test_set_bit (did_c[i], b)) {
  20184a:	84 c9                	test   %cl,%cl
  20184c:	74 04                	je     201852 <_ZN2PdC1EPS_+0xe2>
                    j--;
  20184e:	4f                   	dec    %edi
                    i--;
  20184f:	48                   	dec    %eax
  201850:	eb 26                	jmp    201878 <_ZN2PdC1EPS_+0x108>
                    continue;
                }

                did = i * sizeof(did_c[0]) * 8 + b;
  201852:	89 c1                	mov    %eax,%ecx
  201854:	c1 e1 05             	shl    $0x5,%ecx
  201857:	01 ca                	add    %ecx,%edx
  201859:	89 93 68 01 00 00    	mov    %edx,0x168(%ebx)

                if (did_c[i] != ~0UL && did_f != i)
  20185f:	83 3c 85 e0 b4 01 c0 	cmpl   $0xffffffff,-0x3ffe4b20(,%eax,4)
  201866:	ff 
  201867:	74 20                	je     201889 <_ZN2PdC1EPS_+0x119>
  201869:	39 05 cc b4 01 c0    	cmp    %eax,0xc001b4cc
  20186f:	74 18                	je     201889 <_ZN2PdC1EPS_+0x119>
                    did_f = i;
  201871:	a3 cc b4 01 c0       	mov    %eax,0xc001b4cc
  201876:	eb 11                	jmp    201889 <_ZN2PdC1EPS_+0x119>
        }

        ALWAYS_INLINE
        inline Space_mem() : cpus(0), htlb(~0UL), gtlb(~0UL)
        {
            for (mword i = ACCESS_ONCE(did_f), j = 0; j <= LAST_PCID; i++, j++)
  201878:	47                   	inc    %edi
  201879:	40                   	inc    %eax
  20187a:	83 ff 7f             	cmp    $0x7f,%edi
  20187d:	76 96                	jbe    201815 <_ZN2PdC1EPS_+0xa5>
                    did_f = i;

                return;
            }

            did = NO_PCID;
  20187f:	c7 83 68 01 00 00 02 	movl   $0x2,0x168(%ebx)
  201886:	00 00 00 
  201889:	8d 83 90 01 00 00    	lea    0x190(%ebx),%eax
{
    hpt = Hptp (reinterpret_cast<mword>(&PDBR));

    Mtrr::init();

    Space_mem::insert_root (own->quota, 0, reinterpret_cast<mword>(&LINK_P));
  20188f:	81 c6 90 01 00 00    	add    $0x190,%esi
  201895:	66 c7 83 78 01 00 00 	movw   $0x0,0x178(%ebx)
  20189c:	00 00 
  20189e:	8d 7b 4c             	lea    0x4c(%ebx),%edi
  2018a1:	c7 83 7c 01 00 00 00 	movl   $0x0,0x17c(%ebx)
  2018a8:	00 00 00 

        void update (Quota &quota, bool, mword, mword);

    public:

        Space_pio() : hbmp(0), gbmp(0) {}
  2018ab:	c7 83 80 01 00 00 00 	movl   $0x0,0x180(%ebx)
  2018b2:	00 00 00 
  2018b5:	c7 83 84 01 00 00 00 	movl   $0x0,0x184(%ebx)
  2018bc:	00 00 00 
  2018bf:	66 c7 83 88 01 00 00 	movw   $0x0,0x188(%ebx)
  2018c6:	00 00 
  2018c8:	c7 83 8c 01 00 00 00 	movl   $0x0,0x18c(%ebx)
  2018cf:	00 00 00 

INIT_PRIORITY (PRIO_BUDDY)
ALIGNED(32) Pd Pd::kern (&Pd::kern);
ALIGNED(32) Pd Pd::root (&Pd::root, NUM_EXC, 0x1f);

Pd::Pd (Pd *own) : Kobject (PD, static_cast<Space_obj *>(own))
  2018d2:	e8 9f a1 e0 bf       	call   c000ba76 <_ZN5QuotaC1Ev>
{
    hpt = Hptp (reinterpret_cast<mword>(&PDBR));
  2018d7:	c7 83 54 01 00 00 00 	movl   $0x41f000,0x154(%ebx)
  2018de:	f0 41 00 

    Mtrr::init();
  2018e1:	e8 d6 fa ff ff       	call   2013bc <_ZN4Mtrr4initEv>

    Space_mem::insert_root (own->quota, 0, reinterpret_cast<mword>(&LINK_P));
  2018e6:	31 d2                	xor    %edx,%edx
  2018e8:	b8 00 00 40 00       	mov    $0x400000,%eax
  2018ed:	6a 07                	push   $0x7
  2018ef:	52                   	push   %edx
  2018f0:	89 f2                	mov    %esi,%edx
  2018f2:	50                   	push   %eax
  2018f3:	89 f8                	mov    %edi,%eax
  2018f5:	6a 00                	push   $0x0
  2018f7:	6a 00                	push   $0x0
  2018f9:	e8 5a 00 00 00       	call   201958 <_ZN9Space_mem11insert_rootER5Quotayym>
    Space_mem::insert_root (own->quota, reinterpret_cast<mword>(&LINK_E), 1ULL << 52);
  2018fe:	31 d2                	xor    %edx,%edx
  201900:	b8 00 00 80 02       	mov    $0x2800000,%eax
  201905:	6a 07                	push   $0x7
  201907:	68 00 00 10 00       	push   $0x100000
  20190c:	6a 00                	push   $0x0
  20190e:	52                   	push   %edx
  20190f:	89 f2                	mov    %esi,%edx
  201911:	50                   	push   %eax
  201912:	89 f8                	mov    %edi,%eax
  201914:	e8 3f 00 00 00       	call   201958 <_ZN9Space_mem11insert_rootER5Quotayym>

    // HIP
    Space_mem::insert_root (own->quota, reinterpret_cast<mword>(&FRAME_H), reinterpret_cast<mword>(&FRAME_H) + PAGE_SIZE, 1);
  201919:	83 c4 28             	add    $0x28,%esp
  20191c:	31 d2                	xor    %edx,%edx
  20191e:	6a 01                	push   $0x1
  201920:	b8 00 f0 41 00       	mov    $0x41f000,%eax
  201925:	52                   	push   %edx
  201926:	31 d2                	xor    %edx,%edx
  201928:	50                   	push   %eax
  201929:	b8 00 e0 41 00       	mov    $0x41e000,%eax
  20192e:	52                   	push   %edx
  20192f:	89 f2                	mov    %esi,%edx
  201931:	50                   	push   %eax
  201932:	89 f8                	mov    %edi,%eax
  201934:	e8 1f 00 00 00       	call   201958 <_ZN9Space_mem11insert_rootER5Quotayym>

    // I/O Ports
    Space_pio::addreg (own->quota, 0, 1UL << 16, 7);
  201939:	8d 83 78 01 00 00    	lea    0x178(%ebx),%eax
  20193f:	89 f2                	mov    %esi,%edx
  201941:	6a 00                	push   $0x0
  201943:	31 c9                	xor    %ecx,%ecx
  201945:	6a 07                	push   $0x7
  201947:	68 00 00 01 00       	push   $0x10000
  20194c:	e8 b7 09 e0 bf       	call   c0002308 <_ZN5Space6addregER5Quotamjmm>
  201951:	83 c4 20             	add    $0x20,%esp
}
  201954:	5b                   	pop    %ebx
  201955:	5e                   	pop    %esi
  201956:	5f                   	pop    %edi
  201957:	c3                   	ret    

00201958 <_ZN9Space_mem11insert_rootER5Quotayym>:
            asm volatile ("cli" : : : "memory");
    }
}

void Space_mem::insert_root (Quota &quota, uint64 s, uint64 e, mword a)
{
  201958:	55                   	push   %ebp
  201959:	57                   	push   %edi
  20195a:	56                   	push   %esi
  20195b:	53                   	push   %ebx
  20195c:	83 ec 20             	sub    $0x20,%esp
  20195f:	89 44 24 08          	mov    %eax,0x8(%esp)
  201963:	8b 74 24 34          	mov    0x34(%esp),%esi
  201967:	8b 7c 24 38          	mov    0x38(%esp),%edi
  20196b:	8b 44 24 3c          	mov    0x3c(%esp),%eax
  20196f:	8b 6c 24 40          	mov    0x40(%esp),%ebp
  201973:	89 54 24 0c          	mov    %edx,0xc(%esp)
    for (uint64 p = s; p < e; s = p) {
  201977:	89 74 24 10          	mov    %esi,0x10(%esp)
            asm volatile ("cli" : : : "memory");
    }
}

void Space_mem::insert_root (Quota &quota, uint64 s, uint64 e, mword a)
{
  20197b:	89 04 24             	mov    %eax,(%esp)
    for (uint64 p = s; p < e; s = p) {
  20197e:	89 7c 24 14          	mov    %edi,0x14(%esp)
  201982:	39 6c 24 14          	cmp    %ebp,0x14(%esp)
  201986:	0f 83 c0 00 00 00    	jae    201a4c <_ZN9Space_mem11insert_rootER5Quotayym+0xf4>

        unsigned t = Mtrr::memtype (s, p);
  20198c:	8d 4c 24 10          	lea    0x10(%esp),%ecx
  201990:	89 f0                	mov    %esi,%eax
  201992:	89 fa                	mov    %edi,%edx
  201994:	e8 ab fa ff ff       	call   201444 <_ZN4Mtrr7memtypeEyRy>
  201999:	89 44 24 04          	mov    %eax,0x4(%esp)

        for (uint64 n; p < e; p = n)
  20199d:	8b 54 24 14          	mov    0x14(%esp),%edx
  2019a1:	8b 44 24 10          	mov    0x10(%esp),%eax
  2019a5:	39 ea                	cmp    %ebp,%edx
  2019a7:	73 2b                	jae    2019d4 <_ZN9Space_mem11insert_rootER5Quotayym+0x7c>
            if (Mtrr::memtype (p, n) != t)
  2019a9:	8d 4c 24 18          	lea    0x18(%esp),%ecx
  2019ad:	e8 92 fa ff ff       	call   201444 <_ZN4Mtrr7memtypeEyRy>
  2019b2:	3b 44 24 04          	cmp    0x4(%esp),%eax
  2019b6:	74 0a                	je     2019c2 <_ZN9Space_mem11insert_rootER5Quotayym+0x6a>
                break;

        if (s > ~0UL)
  2019b8:	83 ff 00             	cmp    $0x0,%edi
  2019bb:	76 20                	jbe    2019dd <_ZN9Space_mem11insert_rootER5Quotayym+0x85>
  2019bd:	e9 99 00 00 00       	jmp    201a5b <_ZN9Space_mem11insert_rootER5Quotayym+0x103>
{
    for (uint64 p = s; p < e; s = p) {

        unsigned t = Mtrr::memtype (s, p);

        for (uint64 n; p < e; p = n)
  2019c2:	8b 44 24 18          	mov    0x18(%esp),%eax
  2019c6:	8b 54 24 1c          	mov    0x1c(%esp),%edx
  2019ca:	89 44 24 10          	mov    %eax,0x10(%esp)
  2019ce:	89 54 24 14          	mov    %edx,0x14(%esp)
  2019d2:	eb c9                	jmp    20199d <_ZN9Space_mem11insert_rootER5Quotayym+0x45>
  2019d4:	77 e2                	ja     2019b8 <_ZN9Space_mem11insert_rootER5Quotayym+0x60>
  2019d6:	3b 04 24             	cmp    (%esp),%eax
  2019d9:	72 ce                	jb     2019a9 <_ZN9Space_mem11insert_rootER5Quotayym+0x51>
  2019db:	eb db                	jmp    2019b8 <_ZN9Space_mem11insert_rootER5Quotayym+0x60>
  2019dd:	8b 4c 24 14          	mov    0x14(%esp),%ecx
  2019e1:	89 ea                	mov    %ebp,%edx
  2019e3:	8b 5c 24 10          	mov    0x10(%esp),%ebx
  2019e7:	8b 04 24             	mov    (%esp),%eax
  2019ea:	39 cd                	cmp    %ecx,%ebp
  2019ec:	72 0a                	jb     2019f8 <_ZN9Space_mem11insert_rootER5Quotayym+0xa0>
  2019ee:	77 04                	ja     2019f4 <_ZN9Space_mem11insert_rootER5Quotayym+0x9c>
  2019f0:	39 d8                	cmp    %ebx,%eax
  2019f2:	76 04                	jbe    2019f8 <_ZN9Space_mem11insert_rootER5Quotayym+0xa0>
  2019f4:	89 d8                	mov    %ebx,%eax
  2019f6:	89 ca                	mov    %ecx,%edx
                break;

        if (s > ~0UL)
            break;

        if ((p = min (p, e)) > ~0UL)
  2019f8:	83 fa 00             	cmp    $0x0,%edx
  2019fb:	77 0a                	ja     201a07 <_ZN9Space_mem11insert_rootER5Quotayym+0xaf>
  2019fd:	89 44 24 10          	mov    %eax,0x10(%esp)
  201a01:	89 54 24 14          	mov    %edx,0x14(%esp)
  201a05:	eb 10                	jmp    201a17 <_ZN9Space_mem11insert_rootER5Quotayym+0xbf>
            p = static_cast<uint64>(~0UL) + 1;
  201a07:	c7 44 24 10 00 00 00 	movl   $0x0,0x10(%esp)
  201a0e:	00 
  201a0f:	c7 44 24 14 01 00 00 	movl   $0x1,0x14(%esp)
  201a16:	00 

        addreg (quota, static_cast<mword>(s >> PAGE_BITS), static_cast<mword>(p - s) >> PAGE_BITS, a, t);
  201a17:	ff 74 24 04          	pushl  0x4(%esp)
  201a1b:	89 f1                	mov    %esi,%ecx
  201a1d:	0f ac f9 0c          	shrd   $0xc,%edi,%ecx
  201a21:	ff 74 24 48          	pushl  0x48(%esp)
  201a25:	8b 44 24 18          	mov    0x18(%esp),%eax
  201a29:	29 f0                	sub    %esi,%eax
  201a2b:	c1 e8 0c             	shr    $0xc,%eax
  201a2e:	50                   	push   %eax
  201a2f:	8b 54 24 18          	mov    0x18(%esp),%edx
  201a33:	8b 44 24 14          	mov    0x14(%esp),%eax
  201a37:	e8 cc 08 e0 bf       	call   c0002308 <_ZN5Space6addregER5Quotamjmm>
    }
}

void Space_mem::insert_root (Quota &quota, uint64 s, uint64 e, mword a)
{
    for (uint64 p = s; p < e; s = p) {
  201a3c:	8b 74 24 1c          	mov    0x1c(%esp),%esi
  201a40:	8b 7c 24 20          	mov    0x20(%esp),%edi
  201a44:	83 c4 0c             	add    $0xc,%esp
  201a47:	e9 36 ff ff ff       	jmp    201982 <_ZN9Space_mem11insert_rootER5Quotayym+0x2a>
  201a4c:	77 0d                	ja     201a5b <_ZN9Space_mem11insert_rootER5Quotayym+0x103>
  201a4e:	8b 04 24             	mov    (%esp),%eax
  201a51:	39 44 24 10          	cmp    %eax,0x10(%esp)
  201a55:	0f 82 31 ff ff ff    	jb     20198c <_ZN9Space_mem11insert_rootER5Quotayym+0x34>
        if ((p = min (p, e)) > ~0UL)
            p = static_cast<uint64>(~0UL) + 1;

        addreg (quota, static_cast<mword>(s >> PAGE_BITS), static_cast<mword>(p - s) >> PAGE_BITS, a, t);
    }
}
  201a5b:	83 c4 20             	add    $0x20,%esp
  201a5e:	5b                   	pop    %ebx
  201a5f:	5e                   	pop    %esi
  201a60:	5f                   	pop    %edi
  201a61:	5d                   	pop    %ebp
  201a62:	c3                   	ret    
  201a63:	90                   	nop
  201a64:	90                   	nop
  201a65:	90                   	nop
  201a66:	90                   	nop
  201a67:	90                   	nop

00201a68 <__boot_header>:
  201a68:	02 b0 ad 1b 00 00    	add    0x1bad(%eax),%dh
  201a6e:	00 00                	add    %al,(%eax)
  201a70:	fe 4f 52             	decb   0x52(%edi)
  201a73:	e4 8d                	in     $0x8d,%al
  201a75:	74 26                	je     201a9d <__boot_gdt+0x25>
	...

00201a78 <__boot_gdt>:
  201a78:	00 00                	add    %al,(%eax)
  201a7a:	27                   	daa    
  201a7b:	00 78 1a             	add    %bh,0x1a(%eax)
  201a7e:	20 00                	and    %al,(%eax)
  201a80:	ff                   	(bad)  
  201a81:	ff 00                	incl   (%eax)
  201a83:	00 00                	add    %al,(%eax)
  201a85:	9b                   	fwait
  201a86:	cf                   	iret   
  201a87:	00 ff                	add    %bh,%bh
  201a89:	ff 00                	incl   (%eax)
  201a8b:	00 00                	add    %al,(%eax)
  201a8d:	93                   	xchg   %eax,%ebx
  201a8e:	cf                   	iret   
  201a8f:	00 ff                	add    %bh,%bh
  201a91:	ff 00                	incl   (%eax)
  201a93:	00 00                	add    %al,(%eax)
  201a95:	fb                   	sti    
  201a96:	cf                   	iret   
  201a97:	00 ff                	add    %bh,%bh
  201a99:	ff 00                	incl   (%eax)
  201a9b:	00 00                	add    %al,(%eax)
  201a9d:	f3 cf                	repz iret 
	...

00201aa0 <__boot_gdt__>:
/*
 * AP Startup Code
 */
.code16

__start_ap:             INIT_PAGING
  201aa0:	66 ba 98 06          	mov    $0x698,%dx
  201aa4:	00 00                	add    %al,(%eax)
  201aa6:	0f 22 e2             	mov    %edx,%cr4
  201aa9:	66 ba 00 f0          	mov    $0xf000,%dx
  201aad:	41                   	inc    %ecx
  201aae:	00 0f                	add    %cl,(%edi)
  201ab0:	22 da                	and    %dl,%bl
  201ab2:	66 ba 2b 00          	mov    $0x2b,%dx
  201ab6:	01 80 0f 22 c2 2e    	add    %eax,0x2ec2220f(%eax)
                        lgdtl   %cs:__gdt_desc - __start_ap
  201abc:	66 0f 01 16          	lgdtw  (%esi)
  201ac0:	2a 00                	sub    (%eax),%al
                        ljmpl   $SEL_KERN_CODE, $__start_all
  201ac2:	66 ea 41 1b 20 00    	ljmpw  $0x20,$0x1b41
  201ac8:	08 00                	or     %al,(%eax)

00201aca <__gdt_desc>:
  201aca:	27                   	daa    
  201acb:	00 78 1a             	add    %bh,0x1a(%eax)
  201ace:	20 00                	and    %al,(%eax)

00201ad0 <__start_bsp>:
/*
 * BSP Startup Code
 */
.code32

__start_bsp:            mov     $(__start_bsp - __start_ap), %ecx
  201ad0:	b9 30 00 00 00       	mov    $0x30,%ecx
                        mov     $__start_ap, %esi
  201ad5:	be a0 1a 20 00       	mov    $0x201aa0,%esi
                        mov     $0x1000, %edi
  201ada:	bf 00 10 00 00       	mov    $0x1000,%edi
                        rep     movsb
  201adf:	f3 a4                	rep movsb %ds:(%esi),%es:(%edi)
                        mov     $(LVL3H + 0x27), %ecx
                        mov     %ecx, LVL4  + SIZE * (LINK_ADDR >> (3 * PTE_BPL + PAGE_BITS) & ((1 << PTE_BPL) - 1))
                        mov     $(LVL2H + 0x27), %ecx
                        mov     %ecx, LVL3H + SIZE * (LINK_ADDR >> (2 * PTE_BPL + PAGE_BITS) & ((1 << PTE_BPL) - 1))
#endif
                        mov     $0xe3, %ecx
  201ae1:	b9 e3 00 00 00       	mov    $0xe3,%ecx
                        mov     $LVL2L, %edi
  201ae6:	bf 00 f0 41 00       	mov    $0x41f000,%edi
1:                      mov     %ecx, (%edi)
  201aeb:	89 0f                	mov    %ecx,(%edi)
                        add     $(1 << (PTE_BPL + PAGE_BITS)), %ecx
  201aed:	81 c1 00 00 40 00    	add    $0x400000,%ecx
                        add     $SIZE, %edi
  201af3:	83 c7 04             	add    $0x4,%edi
                        cmp     $LOAD_E, %ecx
  201af6:	81 f9 00 30 20 00    	cmp    $0x203000,%ecx
                        jb      1b
  201afc:	72 ed                	jb     201aeb <__start_bsp+0x1b>

                        mov     $(LINK_P + 0x1e3), %ecx
  201afe:	b9 e3 01 40 00       	mov    $0x4001e3,%ecx
                        mov     $(LVL2H + SIZE * (LINK_ADDR >> (PTE_BPL + PAGE_BITS) & ((1 << PTE_BPL) - 1))), %edi
  201b03:	bf 00 fc 41 00       	mov    $0x41fc00,%edi
1:                      mov     %ecx, (%edi)
  201b08:	89 0f                	mov    %ecx,(%edi)
                        add     $(1 << (PTE_BPL + PAGE_BITS)), %ecx
  201b0a:	81 c1 00 00 40 00    	add    $0x400000,%ecx
                        add     $SIZE, %edi
  201b10:	83 c7 04             	add    $0x4,%edi
                        cmp     $LINK_E, %ecx
  201b13:	81 f9 00 00 80 02    	cmp    $0x2800000,%ecx
                        jb      1b
  201b19:	72 ed                	jb     201b08 <__start_bsp+0x38>

                        INIT_PAGING
  201b1b:	ba 98 06 00 00       	mov    $0x698,%edx
  201b20:	0f 22 e2             	mov    %edx,%cr4
  201b23:	ba 00 f0 41 00       	mov    $0x41f000,%edx
  201b28:	0f 22 da             	mov    %edx,%cr3
  201b2b:	ba 2b 00 01 80       	mov    $0x8001002b,%edx
  201b30:	0f 22 c2             	mov    %edx,%cr0
                        lgdt    __boot_gdt + 2
  201b33:	0f 01 15 7a 1a 20 00 	lgdtl  0x201a7a
                        ljmp    $SEL_KERN_CODE, $__start_all
  201b3a:	ea 41 1b 20 00 08 00 	ljmp   $0x8,$0x201b41

00201b41 <__start_all>:
 */
#ifdef __x86_64__
.code64
#endif

__start_all:            INIT_STATE
  201b41:	b9 10 00 00 00       	mov    $0x10,%ecx
  201b46:	8e d1                	mov    %ecx,%ss
  201b48:	b9 23 00 00 00       	mov    $0x23,%ecx
  201b4d:	8e d9                	mov    %ecx,%ds
  201b4f:	8e c1                	mov    %ecx,%es
  201b51:	8e e1                	mov    %ecx,%fs
  201b53:	8e e9                	mov    %ecx,%gs
  201b55:	bc 00 30 20 00       	mov    $0x203000,%esp
                        test    %REG(bx), %REG(bx)
  201b5a:	85 db                	test   %ebx,%ebx
                        je      2f
  201b5c:	74 0b                	je     201b69 <__start_all+0x28>

                        mov     %REG(bx), %ARG_1
  201b5e:	89 d8                	mov    %ebx,%eax
                        call    init
  201b60:	e8 04 f7 ff ff       	call   201269 <init>
                        jmp     3f
  201b65:	eb 0c                	jmp    201b73 <__start_all+0x32>

1:                      pause
  201b67:	f3 90                	pause  
2:                      xchg    %REG(bx), boot_lock
  201b69:	87 1d 44 a4 01 c0    	xchg   %ebx,0xc001a444
                        test    %REG(bx), %REG(bx)
  201b6f:	85 db                	test   %ebx,%ebx
                        je      1b
  201b71:	74 f4                	je     201b67 <__start_all+0x26>

3:                      call    kern_ptab_setup
  201b73:	e8 57 f6 ff ff       	call   2011cf <kern_ptab_setup>
                        jmp     1f
  201b78:	e9 4b f8 e0 bf       	jmp    c00113c8 <_ZN9Space_pio10page_faultEmm+0x76>
  201b7d:	90                   	nop
  201b7e:	90                   	nop
  201b7f:	90                   	nop

00201b80 <_ZN15Acpi_table_rsdt3mapE>:
  201b80:	41 50 49 43 40 a3 01 c0 44 4d 41 52 4c a3 01 c0     APIC@...DMARL...
  201b90:	46 41 43 50 48 a3 01 c0 48 50 45 54 44 a3 01 c0     FACPH...HPETD...
  201ba0:	4d 43 46 47 3c a3 01 c0 90 90 90 90 90 90 90 90     MCFG<...........
  201bb0:	90 90 90 90 90 90 90 90 90 90 90 90 90 90 90 90     ................

00201bc0 <_ZN7Cmdline3mapE>:
  201bc0:	3c 65 01 c0 8c a3 01 c0 42 65 01 c0 8b a3 01 c0     <e......Be......
  201bd0:	47 65 01 c0 8a a3 01 c0 4e 65 01 c0 89 a3 01 c0     Ge......Ne......
  201be0:	56 65 01 c0 88 a3 01 c0 5b 65 01 c0 87 a3 01 c0     Ve......[e......
  201bf0:	60 65 01 c0 86 a3 01 c0 67 65 01 c0 85 a3 01 c0     `e......ge......
  201c00:	6d 65 01 c0 84 a3 01 c0                             me......

Disassembly of section .text:

c0000000 <_ZN2Ec16ret_user_sysexitEv>:
        if (current != fpowner)
            Fpu::disable();
}

void Ec::ret_user_sysexit()
{
c0000000:	a1 08 f0 ff cf       	mov    0xcffff008,%eax
    mword hzd = (Cpu::hazard | current->regs.hazard()) & (HZD_RECALL | HZD_STEP | HZD_RCU | HZD_FPU | HZD_DS_ES | HZD_SCHED);
c0000005:	8b 80 a0 00 00 00    	mov    0xa0(%eax),%eax
c000000b:	0b 05 00 f0 ff cf    	or     0xcffff000,%eax
    if (EXPECT_FALSE (hzd))
c0000011:	25 1b 00 00 c0       	and    $0xc000001b,%eax
c0000016:	74 0a                	je     c0000022 <_ZN2Ec16ret_user_sysexitEv+0x22>
        handle_hazard (hzd, ret_user_sysexit);
c0000018:	ba 00 00 00 c0       	mov    $0xc0000000,%edx
c000001d:	e8 24 38 00 00       	call   c0003846 <_ZN2Ec13handle_hazardEmPFvvE>

    asm volatile ("lea %0," EXPAND (PREG(sp); LOAD_GPR RET_USER_HYP) : : "m" (current->regs) : "memory");
c0000022:	a1 08 f0 ff cf       	mov    0xcffff008,%eax
c0000027:	8d 60 54             	lea    0x54(%eax),%esp
c000002a:	61                   	popa   
c000002b:	fb                   	sti    
c000002c:	0f 35                	sysexit 

c000002e <ret_user_iret>:

    UNREACHED;
}

void Ec::ret_user_iret()
{
c000002e:	a1 08 f0 ff cf       	mov    0xcffff008,%eax
    // No need to check HZD_DS_ES because IRET will reload both anyway
    mword hzd = (Cpu::hazard | current->regs.hazard()) & (HZD_RECALL | HZD_STEP | HZD_RCU | HZD_FPU | HZD_SCHED);
c0000033:	8b 80 a0 00 00 00    	mov    0xa0(%eax),%eax
c0000039:	0b 05 00 f0 ff cf    	or     0xcffff000,%eax
    if (EXPECT_FALSE (hzd))
c000003f:	25 19 00 00 c0       	and    $0xc0000019,%eax
c0000044:	74 0a                	je     c0000050 <ret_user_iret+0x22>
        handle_hazard (hzd, ret_user_iret);
c0000046:	ba 2e 00 00 c0       	mov    $0xc000002e,%edx
c000004b:	e8 f6 37 00 00       	call   c0003846 <_ZN2Ec13handle_hazardEmPFvvE>

    asm volatile ("lea %0," EXPAND (PREG(sp); LOAD_GPR LOAD_SEG RET_USER_EXC) : : "m" (current->regs) : "memory");
c0000050:	a1 08 f0 ff cf       	mov    0xcffff008,%eax
c0000055:	8d 60 54             	lea    0x54(%eax),%esp
c0000058:	61                   	popa   
c0000059:	0f a9                	pop    %gs
c000005b:	0f a1                	pop    %fs
c000005d:	07                   	pop    %es
c000005e:	1f                   	pop    %ds
c000005f:	83 c4 08             	add    $0x8,%esp
c0000062:	cf                   	iret   
c0000063:	90                   	nop

c0000064 <chk_kern_preempt>:
    UNREACHED;
}

void Ec::chk_kern_preempt()
{
    if (!Cpu::preemption)
c0000064:	80 3d 00 f7 ff cf 00 	cmpb   $0x0,0xcffff700
c000006b:	74 1d                	je     c000008a <chk_kern_preempt+0x26>
        return;

    if (Cpu::hazard & HZD_SCHED) {
c000006d:	f6 05 00 f0 ff cf 01 	testb  $0x1,0xcffff000
c0000074:	74 14                	je     c000008a <chk_kern_preempt+0x26>
        ALWAYS_INLINE
        static inline void preempt_disable()
        {
            assert (preemption);

            asm volatile ("cli" : : : "memory");
c0000076:	fa                   	cli    
        Cpu::preempt_disable();
        Sc::schedule();
c0000077:	ba 01 00 00 00       	mov    $0x1,%edx
c000007c:	31 c0                	xor    %eax,%eax
            preemption = false;
c000007e:	c6 05 00 f7 ff cf 00 	movb   $0x0,0xcffff700
c0000085:	e8 28 f9 00 00       	call   c000f9b2 <_ZN2Sc8scheduleEbb>
c000008a:	c3                   	ret    
c000008b:	90                   	nop

c000008c <_ZN2Ec9recv_kernEv>:
    sys_finish<Sys_regs::COM_TIM>();
}

void Ec::recv_kern()
{
    Ec *ec = current->rcap;
c000008c:	a1 08 f0 ff cf       	mov    0xcffff008,%eax

    sys_finish<Sys_regs::COM_TIM>();
}

void Ec::recv_kern()
{
c0000091:	53                   	push   %ebx
    Ec *ec = current->rcap;
c0000092:	8b 98 b0 00 00 00    	mov    0xb0(%eax),%ebx

    bool fpu = false;

    if (ec->cont == ret_user_iret)
c0000098:	8b 53 50             	mov    0x50(%ebx),%edx
c000009b:	81 fa 2e 00 00 c0    	cmp    $0xc000002e,%edx
c00000a1:	75 10                	jne    c00000b3 <_ZN2Ec9recv_kernEv+0x27>
        fpu = current->utcb->load_exc (&ec->regs);
c00000a3:	8b 80 b4 00 00 00    	mov    0xb4(%eax),%eax
c00000a9:	8d 53 54             	lea    0x54(%ebx),%edx
c00000ac:	e8 a7 45 01 00       	call   c0014658 <_ZN4Utcb8load_excEP8Cpu_regs>
c00000b1:	eb 2e                	jmp    c00000e1 <_ZN2Ec9recv_kernEv+0x55>
    else if (ec->cont == ret_user_vmresume)
c00000b3:	81 fa 2c 3f 00 c0    	cmp    $0xc0003f2c,%edx
c00000b9:	75 10                	jne    c00000cb <_ZN2Ec9recv_kernEv+0x3f>
        fpu = current->utcb->load_vmx (&ec->regs);
c00000bb:	8b 80 b4 00 00 00    	mov    0xb4(%eax),%eax
c00000c1:	8d 53 54             	lea    0x54(%ebx),%edx
c00000c4:	e8 81 46 01 00       	call   c001474a <_ZN4Utcb8load_vmxEP8Cpu_regs>
c00000c9:	eb 16                	jmp    c00000e1 <_ZN2Ec9recv_kernEv+0x55>
    else if (ec->cont == ret_user_vmrun)
c00000cb:	81 fa 44 3a 00 c0    	cmp    $0xc0003a44,%edx
c00000d1:	75 1f                	jne    c00000f2 <_ZN2Ec9recv_kernEv+0x66>
        fpu = current->utcb->load_svm (&ec->regs);
c00000d3:	8b 80 b4 00 00 00    	mov    0xb4(%eax),%eax
c00000d9:	8d 53 54             	lea    0x54(%ebx),%edx
c00000dc:	e8 91 50 01 00       	call   c0015172 <_ZN4Utcb8load_svmEP8Cpu_regs>

    if (EXPECT_FALSE (fpu))
c00000e1:	84 c0                	test   %al,%al
c00000e3:	74 0d                	je     c00000f2 <_ZN2Ec9recv_kernEv+0x66>
        ec->transfer_fpu (current);
c00000e5:	8b 15 08 f0 ff cf    	mov    0xcffff008,%edx
c00000eb:	89 d8                	mov    %ebx,%eax
c00000ed:	e8 d6 43 00 00       	call   c00044c8 <_ZN2Ec12transfer_fpuEPS_>

    ret_user_sysexit();
c00000f2:	e8 09 ff ff ff       	call   c0000000 <_ZN2Ec16ret_user_sysexitEv>
c00000f7:	90                   	nop

c00000f8 <_ZN2Ec5replyEPFvvEP2Sm>:

    ret_user_sysexit();
}

void Ec::reply (void (*c)(), Sm * sm)
{
c00000f8:	55                   	push   %ebp
c00000f9:	57                   	push   %edi
c00000fa:	56                   	push   %esi
c00000fb:	89 d6                	mov    %edx,%esi
c00000fd:	53                   	push   %ebx
c00000fe:	51                   	push   %ecx
    current->cont = c;
c00000ff:	8b 15 08 f0 ff cf    	mov    0xcffff008,%edx

    if (EXPECT_FALSE (current->glb))
c0000105:	66 83 ba ce 00 00 00 	cmpw   $0x0,0xce(%edx)
c000010c:	00 
    ret_user_sysexit();
}

void Ec::reply (void (*c)(), Sm * sm)
{
    current->cont = c;
c000010d:	89 42 50             	mov    %eax,0x50(%edx)

    if (EXPECT_FALSE (current->glb))
c0000110:	74 0f                	je     c0000121 <_ZN2Ec5replyEPFvvEP2Sm+0x29>
        Sc::schedule (true);
c0000112:	ba 01 00 00 00       	mov    $0x1,%edx
c0000117:	b8 01 00 00 00       	mov    $0x1,%eax
c000011c:	e9 d3 01 00 00       	jmp    c00002f4 <_ZN2Ec5replyEPFvvEP2Sm+0x1fc>

    Ec *ec = current->rcap;
c0000121:	8b 9a b0 00 00 00    	mov    0xb0(%edx),%ebx

    if (EXPECT_FALSE (!ec))
c0000127:	85 db                	test   %ebx,%ebx
c0000129:	0f 84 da 01 00 00    	je     c0000309 <_ZN2Ec5replyEPFvvEP2Sm+0x211>
        }

        ALWAYS_INLINE
        inline unsigned clr_partner()
        {
            assert (partner == current);
c000012f:	39 93 bc 00 00 00    	cmp    %edx,0xbc(%ebx)
c0000135:	74 19                	je     c0000150 <_ZN2Ec5replyEPFvvEP2Sm+0x58>
c0000137:	68 f8 9c 01 c0       	push   $0xc0019cf8
c000013c:	68 b2 00 00 00       	push   $0xb2
c0000141:	68 83 68 01 c0       	push   $0xc0016883
c0000146:	68 59 74 01 c0       	push   $0xc0017459
c000014b:	e9 85 02 00 00       	jmp    c00003d5 <_ZN2Ec5replyEPFvvEP2Sm+0x2dd>
        ALWAYS_INLINE
        static inline T add (T &ptr, T v) { return __sync_add_and_fetch (&ptr, v); }

        template <typename T>
        ALWAYS_INLINE
        static inline T sub (T &ptr, T v) { return __sync_sub_and_fetch (&ptr, v); }
c0000150:	f0 ff 4b 48          	lock decl 0x48(%ebx)
            if (partner->rcap) {
                partner->rcap->del_ref();
                partner->rcap = nullptr;
c0000154:	8b 83 bc 00 00 00    	mov    0xbc(%ebx),%eax
c000015a:	c7 80 b0 00 00 00 00 	movl   $0x0,0xb0(%eax)
c0000161:	00 00 00 
c0000164:	8b 83 bc 00 00 00    	mov    0xbc(%ebx),%eax
c000016a:	f0 ff 48 48          	lock decl 0x48(%eax)
            }
            partner->del_ref();
            partner = nullptr;
            return Sc::ctr_link--;
c000016e:	a1 24 fa ff cf       	mov    0xcffffa24,%eax
        Sc::current->ec->activate();

    bool clr = ec->clr_partner();
c0000173:	85 c0                	test   %eax,%eax
c0000175:	8d 50 ff             	lea    -0x1(%eax),%edx
c0000178:	0f 95 44 24 02       	setne  0x2(%esp)

    if (sm)
c000017d:	85 f6                	test   %esi,%esi
            if (partner->rcap) {
                partner->rcap->del_ref();
                partner->rcap = nullptr;
            }
            partner->del_ref();
            partner = nullptr;
c000017f:	c7 83 bc 00 00 00 00 	movl   $0x0,0xbc(%ebx)
c0000186:	00 00 00 
            return Sc::ctr_link--;
c0000189:	89 15 24 fa ff cf    	mov    %edx,0xcffffa24
c000018f:	0f 84 6d 01 00 00    	je     c0000302 <_ZN2Ec5replyEPFvvEP2Sm+0x20a>
        }

        ALWAYS_INLINE
        inline void dn (bool zero, uint64 t, Ec *ec = Ec::current, bool block = true)
        {
            {   Lock_guard <Spinlock> guard (lock);
c0000195:	8d 46 46             	lea    0x46(%esi),%eax

        ALWAYS_INLINE
        static inline bool preempt_status()
        {
            mword flags = 0;
            asm volatile ("pushf; pop %0" : "=r" (flags));
c0000198:	9c                   	pushf  
c0000199:	59                   	pop    %ecx
            return flags & 0x200;
c000019a:	c1 e9 09             	shr    $0x9,%ecx

    public:
        ALWAYS_INLINE
        inline Lock_guard (T &l) : _lock (l), pre(Cpu::preempt_status())
        {
            if (pre)
c000019d:	80 e1 01             	and    $0x1,%cl
c00001a0:	74 2a                	je     c00001cc <_ZN2Ec5replyEPFvvEP2Sm+0xd4>
        }

        ALWAYS_INLINE
        static inline void preempt_disable()
        {
            assert (preemption);
c00001a2:	80 3d 00 f7 ff cf 00 	cmpb   $0x0,0xcffff700
c00001a9:	75 19                	jne    c00001c4 <_ZN2Ec5replyEPFvvEP2Sm+0xcc>
c00001ab:	68 c0 9d 01 c0       	push   $0xc0019dc0
c00001b0:	68 b7 00 00 00       	push   $0xb7
c00001b5:	68 12 61 01 c0       	push   $0xc0016112
c00001ba:	68 83 61 01 c0       	push   $0xc0016183
c00001bf:	e9 11 02 00 00       	jmp    c00003d5 <_ZN2Ec5replyEPFvvEP2Sm+0x2dd>

            asm volatile ("cli" : : : "memory");
c00001c4:	fa                   	cli    
            preemption = false;
c00001c5:	c6 05 00 f7 ff cf 00 	movb   $0x0,0xcffff700
c00001cc:	88 4c 24 03          	mov    %cl,0x3(%esp)
                Cpu::preempt_disable();

            _lock.lock();
c00001d0:	e8 57 09 00 00       	call   c0000b2c <_ZN8Spinlock4lockEv>

                if (counter) {
c00001d5:	8b 46 64             	mov    0x64(%esi),%eax
c00001d8:	8a 4c 24 03          	mov    0x3(%esp),%cl
c00001dc:	85 c0                	test   %eax,%eax
c00001de:	74 79                	je     c0000259 <_ZN2Ec5replyEPFvvEP2Sm+0x161>
                    counter = zero ? 0 : counter - 1;
c00001e0:	48                   	dec    %eax
c00001e1:	89 46 64             	mov    %eax,0x64(%esi)
    public:
        ALWAYS_INLINE
        inline Queue() : headptr (nullptr) {}

        ALWAYS_INLINE
        inline T *head() const { return headptr; }
c00001e4:	8b 46 50             	mov    0x50(%esi),%eax
        }

        ALWAYS_INLINE
        inline bool dequeue (T *t)
        {
            if (!t || !t->next || !t->prev)
c00001e7:	85 c0                	test   %eax,%eax
c00001e9:	0f 84 eb 00 00 00    	je     c00002da <_ZN2Ec5replyEPFvvEP2Sm+0x1e2>
c00001ef:	8b 50 08             	mov    0x8(%eax),%edx
c00001f2:	85 d2                	test   %edx,%edx
c00001f4:	0f 84 e0 00 00 00    	je     c00002da <_ZN2Ec5replyEPFvvEP2Sm+0x1e2>
c00001fa:	8b 78 04             	mov    0x4(%eax),%edi
c00001fd:	85 ff                	test   %edi,%edi
c00001ff:	0f 84 d5 00 00 00    	je     c00002da <_ZN2Ec5replyEPFvvEP2Sm+0x1e2>
                return false;

            if (t == t->next)
c0000205:	39 d0                	cmp    %edx,%eax
c0000207:	75 09                	jne    c0000212 <_ZN2Ec5replyEPFvvEP2Sm+0x11a>
                headptr = nullptr;
c0000209:	c7 46 50 00 00 00 00 	movl   $0x0,0x50(%esi)
c0000210:	eb 17                	jmp    c0000229 <_ZN2Ec5replyEPFvvEP2Sm+0x131>

            else {
                t->next->prev = t->prev;
c0000212:	89 7a 04             	mov    %edi,0x4(%edx)
                t->prev->next = t->next;
c0000215:	8b 50 04             	mov    0x4(%eax),%edx
c0000218:	8b 78 08             	mov    0x8(%eax),%edi
c000021b:	89 7a 08             	mov    %edi,0x8(%edx)
                if (t == headptr)
c000021e:	3b 46 50             	cmp    0x50(%esi),%eax
c0000221:	75 06                	jne    c0000229 <_ZN2Ec5replyEPFvvEP2Sm+0x131>
                    headptr = t->next;
c0000223:	8b 50 08             	mov    0x8(%eax),%edx
c0000226:	89 56 50             	mov    %edx,0x50(%esi)

    public:

        mword reset(bool l = false) {
            if (l) lock.lock();
            mword c = counter;
c0000229:	8b 50 10             	mov    0x10(%eax),%edx
            }

            t->next = t->prev = nullptr;
c000022c:	c7 40 04 00 00 00 00 	movl   $0x0,0x4(%eax)
c0000233:	c7 40 08 00 00 00 00 	movl   $0x0,0x8(%eax)
            counter = 0;
c000023a:	c7 40 10 00 00 00 00 	movl   $0x0,0x10(%eax)
                if (counter) {
                    counter = zero ? 0 : counter - 1;

                    Si * si;
                    if (Queue<Si>::dequeue(si = Queue<Si>::head()))
                        ec->set_si_regs(si->value, static_cast <Sm *>(si)->reset());
c0000241:	8b 40 0c             	mov    0xc(%eax),%eax

        ALWAYS_INLINE
        inline void set_si_regs(mword sig, mword cnt)
        {
            regs.ARG_2 = sig;
            regs.ARG_3 = cnt;
c0000244:	89 53 58             	mov    %edx,0x58(%ebx)
        }

        ALWAYS_INLINE
        inline void set_si_regs(mword sig, mword cnt)
        {
            regs.ARG_2 = sig;
c0000247:	89 43 54             	mov    %eax,0x54(%ebx)
c000024a:	e9 8b 00 00 00       	jmp    c00002da <_ZN2Ec5replyEPFvvEP2Sm+0x1e2>

        ALWAYS_INLINE
        inline bool add_ref()
        {
            for (uint32 r; (r = ref), (r != ex); )
                if (Atomic::cmp_swap (ref, r, r + 1))
c000024f:	8d 50 01             	lea    0x1(%eax),%edx
class Atomic
{
    public:
        template <typename T>
        ALWAYS_INLINE
        static inline bool cmp_swap (T &ptr, T o, T n) { return __sync_bool_compare_and_swap (&ptr, o, n); }
c0000252:	f0 0f b1 53 48       	lock cmpxchg %edx,0x48(%ebx)
c0000257:	74 07                	je     c0000260 <_ZN2Ec5replyEPFvvEP2Sm+0x168>
        inline Refex() : ref (1) {}

        ALWAYS_INLINE
        inline bool add_ref()
        {
            for (uint32 r; (r = ref), (r != ex); )
c0000259:	8b 43 48             	mov    0x48(%ebx),%eax
c000025c:	85 c0                	test   %eax,%eax
c000025e:	75 ef                	jne    c000024f <_ZN2Ec5replyEPFvvEP2Sm+0x157>
        inline T *head() const { return headptr; }

        ALWAYS_INLINE
        inline void enqueue (T *t)
        {
            if (!headptr)
c0000260:	8b 46 4c             	mov    0x4c(%esi),%eax
c0000263:	85 c0                	test   %eax,%eax
c0000265:	75 11                	jne    c0000278 <_ZN2Ec5replyEPFvvEP2Sm+0x180>
                headptr = t->prev = t->next = t;
c0000267:	89 9b c4 00 00 00    	mov    %ebx,0xc4(%ebx)
c000026d:	89 9b c0 00 00 00    	mov    %ebx,0xc0(%ebx)
c0000273:	89 5e 4c             	mov    %ebx,0x4c(%esi)
c0000276:	eb 21                	jmp    c0000299 <_ZN2Ec5replyEPFvvEP2Sm+0x1a1>
            else {
                t->next = headptr;
c0000278:	89 83 c4 00 00 00    	mov    %eax,0xc4(%ebx)
                t->prev = headptr->prev;
c000027e:	8b 56 4c             	mov    0x4c(%esi),%edx
c0000281:	8b 92 c0 00 00 00    	mov    0xc0(%edx),%edx
c0000287:	89 93 c0 00 00 00    	mov    %edx,0xc0(%ebx)
                t->next->prev = t->prev->next = t;
c000028d:	89 9a c4 00 00 00    	mov    %ebx,0xc4(%edx)
c0000293:	89 98 c0 00 00 00    	mov    %ebx,0xc0(%eax)
        }

        ALWAYS_INLINE
        inline void unlock()
        {
            asm volatile ("incb %0" : "=m" (val) : : "memory");
c0000299:	fe 46 46             	incb   0x46(%esi)
        ALWAYS_INLINE
        inline ~Lock_guard()
        {
            _lock.unlock();

            if (pre)
c000029c:	84 c9                	test   %cl,%cl
c000029e:	74 2a                	je     c00002ca <_ZN2Ec5replyEPFvvEP2Sm+0x1d2>
        }

        ALWAYS_INLINE
        static inline void preempt_enable()
        {
            assert (!preemption);
c00002a0:	80 3d 00 f7 ff cf 00 	cmpb   $0x0,0xcffff700
c00002a7:	74 19                	je     c00002c2 <_ZN2Ec5replyEPFvvEP2Sm+0x1ca>
c00002a9:	68 80 9d 01 c0       	push   $0xc0019d80
c00002ae:	68 c0 00 00 00       	push   $0xc0
c00002b3:	68 12 61 01 c0       	push   $0xc0016112
c00002b8:	68 82 61 01 c0       	push   $0xc0016182
c00002bd:	e9 13 01 00 00       	jmp    c00003d5 <_ZN2Ec5replyEPFvvEP2Sm+0x2dd>

            preemption = true;
c00002c2:	c6 05 00 f7 ff cf 01 	movb   $0x1,0xcffff700
            asm volatile ("sti" : : : "memory");
c00002c9:	fb                   	sti    
                ec->add_ref();

                Queue<Ec>::enqueue (ec);
            }

            if (!block)
c00002ca:	80 7c 24 02 00       	cmpb   $0x0,0x2(%esp)
c00002cf:	75 28                	jne    c00002f9 <_ZN2Ec5replyEPFvvEP2Sm+0x201>
                Sc::schedule (false);
c00002d1:	ba 01 00 00 00       	mov    $0x1,%edx
c00002d6:	31 c0                	xor    %eax,%eax
c00002d8:	eb 1a                	jmp    c00002f4 <_ZN2Ec5replyEPFvvEP2Sm+0x1fc>
c00002da:	fe 46 46             	incb   0x46(%esi)
c00002dd:	84 c9                	test   %cl,%cl
c00002df:	74 21                	je     c0000302 <_ZN2Ec5replyEPFvvEP2Sm+0x20a>
        }

        ALWAYS_INLINE
        static inline void preempt_enable()
        {
            assert (!preemption);
c00002e1:	80 3d 00 f7 ff cf 00 	cmpb   $0x0,0xcffff700
c00002e8:	75 bf                	jne    c00002a9 <_ZN2Ec5replyEPFvvEP2Sm+0x1b1>

            preemption = true;
c00002ea:	c6 05 00 f7 ff cf 01 	movb   $0x1,0xcffff700
            asm volatile ("sti" : : : "memory");
c00002f1:	fb                   	sti    
c00002f2:	eb 0e                	jmp    c0000302 <_ZN2Ec5replyEPFvvEP2Sm+0x20a>
c00002f4:	e8 b9 f6 00 00       	call   c000f9b2 <_ZN2Sc8scheduleEbb>

            ec->set_timeout (t, this);

            ec->block_sc();
c00002f9:	89 d8                	mov    %ebx,%eax
c00002fb:	e8 10 82 00 00       	call   c0008510 <_ZN2Ec8block_scEv>
c0000300:	eb 14                	jmp    c0000316 <_ZN2Ec5replyEPFvvEP2Sm+0x21e>
        sm->dn (false, 0, ec, clr);

    if (!clr)
c0000302:	80 7c 24 02 00       	cmpb   $0x0,0x2(%esp)
c0000307:	75 0d                	jne    c0000316 <_ZN2Ec5replyEPFvvEP2Sm+0x21e>
    private:
        T * const ptr;

    public:
        operator T*() const     { return ptr; }
        T * operator->() const  { return ptr; }
c0000309:	a1 10 f0 ff cf       	mov    0xcffff010,%eax
        Sc::current->ec->activate();
c000030e:	8b 40 4c             	mov    0x4c(%eax),%eax
c0000311:	e8 02 15 01 00       	call   c0011818 <_ZN2Ec8activateEv>
        ALWAYS_INLINE
        static inline T add (T &ptr, T v) { return __sync_add_and_fetch (&ptr, v); }

        template <typename T>
        ALWAYS_INLINE
        static inline T sub (T &ptr, T v) { return __sync_sub_and_fetch (&ptr, v); }
c0000316:	a1 08 f0 ff cf       	mov    0xcffff008,%eax
c000031b:	83 ca ff             	or     $0xffffffff,%edx
c000031e:	f0 0f c1 50 48       	lock xadd %edx,0x48(%eax)
        }

        ALWAYS_INLINE NORETURN
        inline void make_current()
        {
            if (EXPECT_FALSE(current->del_ref())) {
c0000323:	4a                   	dec    %edx
c0000324:	75 29                	jne    c000034f <_ZN2Ec5replyEPFvvEP2Sm+0x257>
                delete current;
c0000326:	8b 35 08 f0 ff cf    	mov    0xcffff008,%esi
c000032c:	85 f6                	test   %esi,%esi
c000032e:	74 1f                	je     c000034f <_ZN2Ec5replyEPFvvEP2Sm+0x257>
c0000330:	89 f0                	mov    %esi,%eax
c0000332:	e8 d7 31 00 00       	call   c000350e <_ZN2EcD1Ev>

        ALWAYS_INLINE
        static inline void *operator new (size_t, Quota &quota) { return cache.alloc(quota); }

        ALWAYS_INLINE
        static inline void operator delete (void *ptr) { cache.free (ptr, static_cast<Ec *>(ptr)->pd->quota); }
c0000337:	8b 86 b8 00 00 00    	mov    0xb8(%esi),%eax
c000033d:	89 f2                	mov    %esi,%edx
c000033f:	8d 88 90 01 00 00    	lea    0x190(%eax),%ecx
c0000345:	b8 6c a4 01 c0       	mov    $0xc001a46c,%eax
c000034a:	e8 11 00 01 00       	call   c0010360 <_ZN10Slab_cache4freeEPvR5Quota>
        {
            if (EXPECT_FALSE(current->del_ref())) {
                delete current;
            }

            current = this;
c000034f:	89 1d 08 f0 ff cf    	mov    %ebx,0xcffff008
        inline Refex() : ref (1) {}

        ALWAYS_INLINE
        inline bool add_ref()
        {
            for (uint32 r; (r = ref), (r != ex); )
c0000355:	8b 43 48             	mov    0x48(%ebx),%eax
c0000358:	85 c0                	test   %eax,%eax
c000035a:	74 0a                	je     c0000366 <_ZN2Ec5replyEPFvvEP2Sm+0x26e>
                if (Atomic::cmp_swap (ref, r, r + 1))
c000035c:	8d 50 01             	lea    0x1(%eax),%edx
class Atomic
{
    public:
        template <typename T>
        ALWAYS_INLINE
        static inline bool cmp_swap (T &ptr, T o, T n) { return __sync_bool_compare_and_swap (&ptr, o, n); }
c000035f:	f0 0f b1 53 48       	lock cmpxchg %edx,0x48(%ebx)
c0000364:	75 ef                	jne    c0000355 <_ZN2Ec5replyEPFvvEP2Sm+0x25d>
    private:
        T * const ptr;

    public:
        operator T*() const     { return ptr; }
        T * operator->() const  { return ptr; }
c0000366:	8b b3 b8 00 00 00    	mov    0xb8(%ebx),%esi

            current->add_ref();

            Tss::run.sp0 = reinterpret_cast<mword>(exc_regs() + 1);
c000036c:	8d 83 a0 00 00 00    	lea    0xa0(%ebx),%eax
c0000372:	a3 c4 fa ff cf       	mov    %eax,0xcffffac4

        ALWAYS_INLINE
        inline bool chk (unsigned cpu) const { return val & 1UL << cpu; }
c0000377:	8b 0d 04 f0 ff cf    	mov    0xcffff004,%ecx
c000037d:	8b 86 70 01 00 00    	mov    0x170(%esi),%eax
        Pd (Pd *own, mword sel, mword a);

        ALWAYS_INLINE HOT
        inline void make_current()
        {
            mword pcid = did;
c0000383:	8b 96 68 01 00 00    	mov    0x168(%esi),%edx

            if (EXPECT_FALSE (htlb.chk (Cpu::id)))
c0000389:	0f a3 c8             	bt     %ecx,%eax
c000038c:	73 10                	jae    c000039e <_ZN2Ec5replyEPFvvEP2Sm+0x2a6>

        ALWAYS_INLINE
        inline bool set (unsigned cpu) { return !Atomic::test_set_bit (val, cpu); }

        ALWAYS_INLINE
        inline void clr (unsigned cpu) { Atomic::clr_mask (val, 1UL << cpu); }
c000038e:	b8 fe ff ff ff       	mov    $0xfffffffe,%eax
        ALWAYS_INLINE
        static inline void set_mask (T &ptr, T v) { __sync_or_and_fetch (&ptr, v); }

        template <typename T>
        ALWAYS_INLINE
        static inline void clr_mask (T &ptr, T v) { __sync_and_and_fetch (&ptr, ~v); }
c0000393:	d3 c0                	rol    %cl,%eax
c0000395:	f0 21 86 70 01 00 00 	lock and %eax,0x170(%esi)
c000039c:	eb 0c                	jmp    c00003aa <_ZN2Ec5replyEPFvvEP2Sm+0x2b2>
                htlb.clr (Cpu::id);

            else {

                if (EXPECT_TRUE (current == this))
c000039e:	39 35 0c f0 ff cf    	cmp    %esi,0xcffff00c
c00003a4:	0f 84 a2 00 00 00    	je     c000044c <_ZN2Ec5replyEPFvvEP2Sm+0x354>
        ALWAYS_INLINE
        static inline T add (T &ptr, T v) { return __sync_add_and_fetch (&ptr, v); }

        template <typename T>
        ALWAYS_INLINE
        static inline T sub (T &ptr, T v) { return __sync_sub_and_fetch (&ptr, v); }
c00003aa:	a1 0c f0 ff cf       	mov    0xcffff00c,%eax
c00003af:	83 c9 ff             	or     $0xffffffff,%ecx
c00003b2:	f0 0f c1 48 48       	lock xadd %ecx,0x48(%eax)
                if (pcid != NO_PCID)
                    pcid |= static_cast<mword>(1ULL << 63);
            }

            Pd * del_pd = nullptr;
            if (current->del_ref()) {
c00003b7:	49                   	dec    %ecx
c00003b8:	75 25                	jne    c00003df <_ZN2Ec5replyEPFvvEP2Sm+0x2e7>
                assert (current != this);
c00003ba:	8b 3d 0c f0 ff cf    	mov    0xcffff00c,%edi
c00003c0:	39 f7                	cmp    %esi,%edi
c00003c2:	75 1d                	jne    c00003e1 <_ZN2Ec5replyEPFvvEP2Sm+0x2e9>
c00003c4:	68 5c 9d 01 c0       	push   $0xc0019d5c
c00003c9:	6a 5e                	push   $0x5e
c00003cb:	68 18 73 01 c0       	push   $0xc0017318
c00003d0:	68 87 73 01 c0       	push   $0xc0017387
c00003d5:	68 69 60 01 c0       	push   $0xc0016069
c00003da:	e8 67 15 00 00       	call   c0001946 <_ZN7Console5panicEPKcz>

                if (pcid != NO_PCID)
                    pcid |= static_cast<mword>(1ULL << 63);
            }

            Pd * del_pd = nullptr;
c00003df:	31 ff                	xor    %edi,%edi
            if (current->del_ref()) {
                assert (current != this);
                del_pd = current;
            }

            current = this;
c00003e1:	89 35 0c f0 ff cf    	mov    %esi,0xcffff00c
        inline Refex() : ref (1) {}

        ALWAYS_INLINE
        inline bool add_ref()
        {
            for (uint32 r; (r = ref), (r != ex); )
c00003e7:	8b 46 48             	mov    0x48(%esi),%eax
c00003ea:	85 c0                	test   %eax,%eax
c00003ec:	74 0a                	je     c00003f8 <_ZN2Ec5replyEPFvvEP2Sm+0x300>
                if (Atomic::cmp_swap (ref, r, r + 1))
c00003ee:	8d 48 01             	lea    0x1(%eax),%ecx
class Atomic
{
    public:
        template <typename T>
        ALWAYS_INLINE
        static inline bool cmp_swap (T &ptr, T o, T n) { return __sync_bool_compare_and_swap (&ptr, o, n); }
c00003f1:	f0 0f b1 4e 48       	lock cmpxchg %ecx,0x48(%esi)
c00003f6:	75 ef                	jne    c00003e7 <_ZN2Ec5replyEPFvvEP2Sm+0x2ef>

            current->add_ref();

            loc[Cpu::id].make_current (Cpu::feature (Cpu::FEAT_PCID) ? pcid : 0);
c00003f8:	31 ed                	xor    %ebp,%ebp
        }

        ALWAYS_INLINE
        inline void make_current (mword pcid)
        {
            asm volatile ("mov %0, %%cr3" : : "r" (val | pcid) : "memory");
c00003fa:	a1 04 f0 ff cf       	mov    0xcffff004,%eax
c00003ff:	f6 05 0a f7 ff cf 02 	testb  $0x2,0xcffff70a
c0000406:	0f 44 d5             	cmove  %ebp,%edx
c0000409:	0b 54 86 54          	or     0x54(%esi,%eax,4),%edx
c000040d:	0f 22 da             	mov    %edx,%cr3

            if (del_pd)
c0000410:	85 ff                	test   %edi,%edi
c0000412:	74 38                	je     c000044c <_ZN2Ec5replyEPFvvEP2Sm+0x354>
                delete del_pd;
c0000414:	89 f8                	mov    %edi,%eax

        ALWAYS_INLINE
        static inline void operator delete (void *ptr)
        {
            Pd *pd_del = static_cast<Pd *>(ptr);
            Pd *pd_to  = static_cast<Pd *>(static_cast<Space_obj *>(pd_del->space));
c0000416:	89 ee                	mov    %ebp,%esi
            current->add_ref();

            loc[Cpu::id].make_current (Cpu::feature (Cpu::FEAT_PCID) ? pcid : 0);

            if (del_pd)
                delete del_pd;
c0000418:	e8 cb c5 00 00       	call   c000c9e8 <_ZN2PdD1Ev>

        ALWAYS_INLINE
        static inline void operator delete (void *ptr)
        {
            Pd *pd_del = static_cast<Pd *>(ptr);
            Pd *pd_to  = static_cast<Pd *>(static_cast<Space_obj *>(pd_del->space));
c000041d:	8b 57 28             	mov    0x28(%edi),%edx
c0000420:	85 d2                	test   %edx,%edx
c0000422:	8d 82 78 fe ff ff    	lea    -0x188(%edx),%eax
c0000428:	0f 45 f0             	cmovne %eax,%esi

            pd_del->quota.free_up(pd_to->quota);
c000042b:	81 c6 90 01 00 00    	add    $0x190,%esi
c0000431:	8d 87 90 01 00 00    	lea    0x190(%edi),%eax
c0000437:	89 f2                	mov    %esi,%edx
c0000439:	e8 8e 25 00 00       	call   c00029cc <_ZN5Quota7free_upERS_>

            cache.free (ptr, pd_to->quota);
c000043e:	89 f1                	mov    %esi,%ecx
c0000440:	89 fa                	mov    %edi,%edx
c0000442:	b8 64 b4 01 c0       	mov    $0xc001b464,%eax
c0000447:	e8 14 ff 00 00       	call   c0010360 <_ZN10Slab_cache4freeEPvR5Quota>

            pd->make_current();

            asm volatile ("mov %0," EXPAND (PREG(sp);) "jmp *%1" : : "g" (CPU_LOCAL_STCK + PAGE_SIZE), "q" (cont) : "memory"); UNREACHED;
c000044c:	8b 43 50             	mov    0x50(%ebx),%eax
c000044f:	bc 00 e0 ff cf       	mov    $0xcfffe000,%esp
c0000454:	ff e0                	jmp    *%eax

c0000456 <_ZN2Ec9recv_userEv>:
    ret_user_sysexit();
}

void Ec::recv_user()
{
    Ec *ec = current->rcap;
c0000456:	a1 08 f0 ff cf       	mov    0xcffff008,%eax

    ret_user_sysexit();
}

void Ec::recv_user()
{
c000045b:	57                   	push   %edi
c000045c:	bf fc 03 00 00       	mov    $0x3fc,%edi
c0000461:	56                   	push   %esi
c0000462:	53                   	push   %ebx
    Ec *ec = current->rcap;
c0000463:	8b 88 b0 00 00 00    	mov    0xb0(%eax),%ecx

    ec->utcb->save (current->utcb);
c0000469:	8b 98 b4 00 00 00    	mov    0xb4(%eax),%ebx
c000046f:	8b b1 b4 00 00 00    	mov    0xb4(%ecx),%esi
c0000475:	8b 06                	mov    (%esi),%eax
        WARN_UNUSED_RESULT bool load_svm (Cpu_regs *);
        WARN_UNUSED_RESULT bool save_exc (Cpu_regs *);
        WARN_UNUSED_RESULT bool save_vmx (Cpu_regs *);
        WARN_UNUSED_RESULT bool save_svm (Cpu_regs *);

        inline mword ucnt() const { return static_cast<uint16>(items); }
c0000477:	0f b7 d0             	movzwl %ax,%edx
c000047a:	81 fa fc 03 00 00    	cmp    $0x3fc,%edx
c0000480:	0f 47 d7             	cmova  %edi,%edx
        ALWAYS_INLINE NONNULL
        inline void save (Utcb *dst)
        {
            register mword n = ui();

            dst->items = items;
c0000483:	89 03                	mov    %eax,(%ebx)
#if 0
            mword *d = dst->mr, *s = mr;
            asm volatile ("rep; movsl" : "+D" (d), "+S" (s), "+c" (n) : : "memory");
#else
            for (unsigned long i = 0; i < n; i++)
c0000485:	31 c0                	xor    %eax,%eax
c0000487:	39 d0                	cmp    %edx,%eax
c0000489:	74 0b                	je     c0000496 <_ZN2Ec9recv_userEv+0x40>
                dst->mr[i] = mr[i];
c000048b:	8b 7c 86 10          	mov    0x10(%esi,%eax,4),%edi
c000048f:	89 7c 83 10          	mov    %edi,0x10(%ebx,%eax,4)
            dst->items = items;
#if 0
            mword *d = dst->mr, *s = mr;
            asm volatile ("rep; movsl" : "+D" (d), "+S" (s), "+c" (n) : : "memory");
#else
            for (unsigned long i = 0; i < n; i++)
c0000493:	40                   	inc    %eax
c0000494:	eb f1                	jmp    c0000487 <_ZN2Ec9recv_userEv+0x31>
c0000496:	8b 81 b4 00 00 00    	mov    0xb4(%ecx),%eax

    if (EXPECT_FALSE (ec->utcb->tcnt()))
c000049c:	66 83 78 02 00       	cmpw   $0x0,0x2(%eax)
c00004a1:	74 05                	je     c00004a8 <_ZN2Ec9recv_userEv+0x52>
        delegate<true>();
c00004a3:	e8 3a 27 01 00       	call   c0012be2 <_ZN2Ec8delegateILb1EEEvv>

    ret_user_sysexit();
c00004a8:	e8 53 fb ff ff       	call   c0000000 <_ZN2Ec16ret_user_sysexitEv>
c00004ad:	90                   	nop

c00004ae <_ZN2Ec9sys_replyEv>:

    ec->make_current();
}

void Ec::sys_reply()
{
c00004ae:	56                   	push   %esi
c00004af:	53                   	push   %ebx
c00004b0:	83 ec 08             	sub    $0x8,%esp
    Ec *ec = current->rcap;
c00004b3:	a1 08 f0 ff cf       	mov    0xcffff008,%eax
c00004b8:	8b 98 b0 00 00 00    	mov    0xb0(%eax),%ebx
    Sm *sm = nullptr;

    if (EXPECT_TRUE (ec)) {
c00004be:	85 db                	test   %ebx,%ebx
c00004c0:	0f 84 18 01 00 00    	je     c00005de <_ZN2Ec9sys_replyEv+0x130>

        enum { SYSCALL_REPLY = 1 };

        Sys_reply *r = static_cast<Sys_reply *>(current->sys_regs());

        if (EXPECT_FALSE (current->cont == sys_reply && current->regs.status() != SYSCALL_REPLY)) {
c00004c6:	81 78 50 ae 04 00 c0 	cmpl   $0xc00004ae,0x50(%eax)
c00004cd:	0f 85 97 00 00 00    	jne    c000056a <_ZN2Ec9sys_replyEv+0xbc>
c00004d3:	8b 50 70             	mov    0x70(%eax),%edx
c00004d6:	80 fa 01             	cmp    $0x1,%dl
c00004d9:	0f 84 8b 00 00 00    	je     c000056a <_ZN2Ec9sys_replyEv+0xbc>
            sm = reinterpret_cast<Sm *>(r->sm_kern());
c00004df:	89 14 24             	mov    %edx,(%esp)
                if (EXPECT_TRUE (cap.obj()->type() == Kobject::SM && (cap.prm() & 2)))
                    sm = static_cast<Sm *>(cap.obj());
            }
        }

        if (EXPECT_FALSE (sm)) {
c00004e2:	85 d2                	test   %edx,%edx
            else
                ARG_1 = (ARG_1 & ~0xfful) | s;
        }

        ALWAYS_INLINE
        inline void set_pt (mword pt) { ARG_1 = pt; }
c00004e4:	c7 40 70 01 00 00 00 	movl   $0x1,0x70(%eax)
            sm = reinterpret_cast<Sm *>(r->sm_kern());
            current->regs.set_pt(SYSCALL_REPLY);
        } else {
            if (EXPECT_FALSE (r->sm())) {
                Capability cap = Space_obj::lookup (r->sm());
                if (EXPECT_TRUE (cap.obj()->type() == Kobject::SM && (cap.prm() & 2)))
c00004eb:	0f 84 92 00 00 00    	je     c0000583 <_ZN2Ec9sys_replyEv+0xd5>
                    sm = static_cast<Sm *>(cap.obj());
            }
        }

        if (EXPECT_FALSE (sm)) {
            if (ec->cont == ret_user_sysexit)
c00004f1:	8b 53 50             	mov    0x50(%ebx),%edx
c00004f4:	81 fa 00 00 00 c0    	cmp    $0xc0000000,%edx
c00004fa:	75 0c                	jne    c0000508 <_ZN2Ec9sys_replyEv+0x5a>
                ec->cont = sys_call;
c00004fc:	c7 43 50 70 06 00 c0 	movl   $0xc0000670,0x50(%ebx)
c0000503:	e9 82 00 00 00       	jmp    c000058a <_ZN2Ec9sys_replyEv+0xdc>
            else if (ec->cont == xcpu_return)
c0000508:	81 fa 8e 40 00 c0    	cmp    $0xc000408e,%edx
c000050e:	75 06                	jne    c0000516 <_ZN2Ec9sys_replyEv+0x68>
        inline void set_status (Status s, bool c = true)
        {
            if (c)
                ARG_1 = s;
            else
                ARG_1 = (ARG_1 & ~0xfful) | s;
c0000510:	c6 43 70 03          	movb   $0x3,0x70(%ebx)
c0000514:	eb 74                	jmp    c000058a <_ZN2Ec9sys_replyEv+0xdc>
                ec->regs.set_status (Sys_regs::BAD_HYP, false);
            else if (ec->cont == sys_reply) {
c0000516:	81 fa ae 04 00 c0    	cmp    $0xc00004ae,%edx
c000051c:	75 6c                	jne    c000058a <_ZN2Ec9sys_replyEv+0xdc>
                assert (ec->regs.status() == SYSCALL_REPLY);
c000051e:	80 7b 70 01          	cmpb   $0x1,0x70(%ebx)
c0000522:	74 16                	je     c000053a <_ZN2Ec9sys_replyEv+0x8c>
c0000524:	68 dc 9c 01 c0       	push   $0xc0019cdc
c0000529:	68 fb 00 00 00       	push   $0xfb
c000052e:	68 7b 97 01 c0       	push   $0xc001977b
c0000533:	68 40 99 01 c0       	push   $0xc0019940
c0000538:	eb 26                	jmp    c0000560 <_ZN2Ec9sys_replyEv+0xb2>
        }

        ALWAYS_INLINE
        inline void set_pt (mword pt) { ARG_1 = pt; }
c000053a:	8b 04 24             	mov    (%esp),%eax
                ec->regs.set_pt(reinterpret_cast<mword>(sm));
                assert (ec->regs.status() != SYSCALL_REPLY);
                reply();
c000053d:	31 d2                	xor    %edx,%edx
            else if (ec->cont == xcpu_return)
                ec->regs.set_status (Sys_regs::BAD_HYP, false);
            else if (ec->cont == sys_reply) {
                assert (ec->regs.status() == SYSCALL_REPLY);
                ec->regs.set_pt(reinterpret_cast<mword>(sm));
                assert (ec->regs.status() != SYSCALL_REPLY);
c000053f:	80 3c 24 01          	cmpb   $0x1,(%esp)
c0000543:	89 43 70             	mov    %eax,0x70(%ebx)
c0000546:	0f 85 9c 00 00 00    	jne    c00005e8 <_ZN2Ec9sys_replyEv+0x13a>
c000054c:	68 dc 9c 01 c0       	push   $0xc0019cdc
c0000551:	68 fd 00 00 00       	push   $0xfd
c0000556:	68 7b 97 01 c0       	push   $0xc001977b
c000055b:	68 63 99 01 c0       	push   $0xc0019963
c0000560:	68 69 60 01 c0       	push   $0xc0016069
c0000565:	e8 dc 13 00 00       	call   c0001946 <_ZN7Console5panicEPKcz>

        if (EXPECT_FALSE (current->cont == sys_reply && current->regs.status() != SYSCALL_REPLY)) {
            sm = reinterpret_cast<Sm *>(r->sm_kern());
            current->regs.set_pt(SYSCALL_REPLY);
        } else {
            if (EXPECT_FALSE (r->sm())) {
c000056a:	8b 50 70             	mov    0x70(%eax),%edx
c000056d:	c1 ea 08             	shr    $0x8,%edx
c0000570:	74 11                	je     c0000583 <_ZN2Ec9sys_replyEv+0xd5>
        static unsigned const caps = (END_SPACE_LIM - SPC_LOCAL_OBJ) / sizeof (Capability);

        ALWAYS_INLINE
        static inline Capability lookup (unsigned long idx)
        {
            return *reinterpret_cast<Capability *>(idx_to_virt (idx));
c0000572:	8b 14 95 00 00 00 e0 	mov    -0x20000000(,%edx,4),%edx

    public:
        ALWAYS_INLINE
        inline Type type() const
        {
            return EXPECT_TRUE (this) ? Type (objtype) : INVALID;
c0000579:	89 d6                	mov    %edx,%esi
c000057b:	83 e6 e0             	and    $0xffffffe0,%esi
c000057e:	89 34 24             	mov    %esi,(%esp)
c0000581:	75 6c                	jne    c00005ef <_ZN2Ec9sys_replyEv+0x141>

    ec->make_current();
}

void Ec::sys_reply()
{
c0000583:	c7 04 24 00 00 00 00 	movl   $0x0,(%esp)
                assert (ec->regs.status() != SYSCALL_REPLY);
                reply();
            }
        }

        Utcb *src = current->utcb;
c000058a:	8b 80 b4 00 00 00    	mov    0xb4(%eax),%eax

        if (EXPECT_FALSE (src->tcnt()))
c0000590:	66 83 78 02 00       	cmpw   $0x0,0x2(%eax)
c0000595:	74 0d                	je     c00005a4 <_ZN2Ec9sys_replyEv+0xf6>
c0000597:	89 44 24 04          	mov    %eax,0x4(%esp)
            delegate<false>();
c000059b:	e8 40 27 01 00       	call   c0012ce0 <_ZN2Ec8delegateILb0EEEvv>
c00005a0:	8b 44 24 04          	mov    0x4(%esp),%eax

        bool fpu = false;

        assert (current->cont != ret_xcpu_reply);
c00005a4:	8b 15 08 f0 ff cf    	mov    0xcffff008,%edx
c00005aa:	81 7a 50 64 16 01 c0 	cmpl   $0xc0011664,0x50(%edx)
c00005b1:	75 16                	jne    c00005c9 <_ZN2Ec9sys_replyEv+0x11b>
c00005b3:	68 dc 9c 01 c0       	push   $0xc0019cdc
c00005b8:	68 09 01 00 00       	push   $0x109
c00005bd:	68 7b 97 01 c0       	push   $0xc001977b
c00005c2:	68 86 99 01 c0       	push   $0xc0019986
c00005c7:	eb 97                	jmp    c0000560 <_ZN2Ec9sys_replyEv+0xb2>

        if (EXPECT_TRUE ((ec->cont == ret_user_sysexit) || ec->cont == xcpu_return))
c00005c9:	8b 4b 50             	mov    0x50(%ebx),%ecx
c00005cc:	81 f9 00 00 00 c0    	cmp    $0xc0000000,%ecx
c00005d2:	74 29                	je     c00005fd <_ZN2Ec9sys_replyEv+0x14f>
c00005d4:	81 f9 8e 40 00 c0    	cmp    $0xc000408e,%ecx
c00005da:	75 4d                	jne    c0000629 <_ZN2Ec9sys_replyEv+0x17b>
c00005dc:	eb 1f                	jmp    c00005fd <_ZN2Ec9sys_replyEv+0x14f>
}

void Ec::sys_reply()
{
    Ec *ec = current->rcap;
    Sm *sm = nullptr;
c00005de:	c7 04 24 00 00 00 00 	movl   $0x0,(%esp)

        if (EXPECT_FALSE (fpu))
            current->transfer_fpu (ec);
    }

    reply(nullptr, sm);
c00005e5:	8b 14 24             	mov    (%esp),%edx
c00005e8:	31 c0                	xor    %eax,%eax
c00005ea:	e8 09 fb ff ff       	call   c00000f8 <_ZN2Ec5replyEPFvvEP2Sm>
            sm = reinterpret_cast<Sm *>(r->sm_kern());
            current->regs.set_pt(SYSCALL_REPLY);
        } else {
            if (EXPECT_FALSE (r->sm())) {
                Capability cap = Space_obj::lookup (r->sm());
                if (EXPECT_TRUE (cap.obj()->type() == Kobject::SM && (cap.prm() & 2)))
c00005ef:	80 7e 44 04          	cmpb   $0x4,0x44(%esi)
c00005f3:	75 8e                	jne    c0000583 <_ZN2Ec9sys_replyEv+0xd5>
c00005f5:	f6 c2 02             	test   $0x2,%dl
c00005f8:	e9 ee fe ff ff       	jmp    c00004eb <_ZN2Ec9sys_replyEv+0x3d>
c00005fd:	8b 10                	mov    (%eax),%edx
c00005ff:	be fc 03 00 00       	mov    $0x3fc,%esi
        bool fpu = false;

        assert (current->cont != ret_xcpu_reply);

        if (EXPECT_TRUE ((ec->cont == ret_user_sysexit) || ec->cont == xcpu_return))
            src->save (ec->utcb);
c0000604:	8b 9b b4 00 00 00    	mov    0xb4(%ebx),%ebx
        WARN_UNUSED_RESULT bool load_svm (Cpu_regs *);
        WARN_UNUSED_RESULT bool save_exc (Cpu_regs *);
        WARN_UNUSED_RESULT bool save_vmx (Cpu_regs *);
        WARN_UNUSED_RESULT bool save_svm (Cpu_regs *);

        inline mword ucnt() const { return static_cast<uint16>(items); }
c000060a:	0f b7 ca             	movzwl %dx,%ecx
c000060d:	81 f9 fc 03 00 00    	cmp    $0x3fc,%ecx
c0000613:	0f 47 ce             	cmova  %esi,%ecx
        ALWAYS_INLINE NONNULL
        inline void save (Utcb *dst)
        {
            register mword n = ui();

            dst->items = items;
c0000616:	89 13                	mov    %edx,(%ebx)
#if 0
            mword *d = dst->mr, *s = mr;
            asm volatile ("rep; movsl" : "+D" (d), "+S" (s), "+c" (n) : : "memory");
#else
            for (unsigned long i = 0; i < n; i++)
c0000618:	31 d2                	xor    %edx,%edx
c000061a:	39 ca                	cmp    %ecx,%edx
c000061c:	74 c7                	je     c00005e5 <_ZN2Ec9sys_replyEv+0x137>
                dst->mr[i] = mr[i];
c000061e:	8b 74 90 10          	mov    0x10(%eax,%edx,4),%esi
c0000622:	89 74 93 10          	mov    %esi,0x10(%ebx,%edx,4)
            dst->items = items;
#if 0
            mword *d = dst->mr, *s = mr;
            asm volatile ("rep; movsl" : "+D" (d), "+S" (s), "+c" (n) : : "memory");
#else
            for (unsigned long i = 0; i < n; i++)
c0000626:	42                   	inc    %edx
c0000627:	eb f1                	jmp    c000061a <_ZN2Ec9sys_replyEv+0x16c>
        else if (ec->cont == ret_user_iret)
c0000629:	81 f9 2e 00 00 c0    	cmp    $0xc000002e,%ecx
c000062f:	75 0a                	jne    c000063b <_ZN2Ec9sys_replyEv+0x18d>
            fpu = src->save_exc (&ec->regs);
c0000631:	8d 53 54             	lea    0x54(%ebx),%edx
c0000634:	e8 a7 40 01 00       	call   c00146e0 <_ZN4Utcb8save_excEP8Cpu_regs>
c0000639:	eb 1f                	jmp    c000065a <_ZN2Ec9sys_replyEv+0x1ac>
        else if (ec->cont == ret_user_vmresume)
c000063b:	81 f9 2c 3f 00 c0    	cmp    $0xc0003f2c,%ecx
c0000641:	8d 53 54             	lea    0x54(%ebx),%edx
c0000644:	75 07                	jne    c000064d <_ZN2Ec9sys_replyEv+0x19f>
            fpu = src->save_vmx (&ec->regs);
c0000646:	e8 97 46 01 00       	call   c0014ce2 <_ZN4Utcb8save_vmxEP8Cpu_regs>
c000064b:	eb 0d                	jmp    c000065a <_ZN2Ec9sys_replyEv+0x1ac>
        else if (ec->cont == ret_user_vmrun)
c000064d:	81 f9 44 3a 00 c0    	cmp    $0xc0003a44,%ecx
c0000653:	75 90                	jne    c00005e5 <_ZN2Ec9sys_replyEv+0x137>
            fpu = src->save_svm (&ec->regs);
c0000655:	e8 00 4e 01 00       	call   c001545a <_ZN4Utcb8save_svmEP8Cpu_regs>

        if (EXPECT_FALSE (fpu))
c000065a:	84 c0                	test   %al,%al
c000065c:	74 87                	je     c00005e5 <_ZN2Ec9sys_replyEv+0x137>
            current->transfer_fpu (ec);
c000065e:	a1 08 f0 ff cf       	mov    0xcffff008,%eax
c0000663:	89 da                	mov    %ebx,%edx
c0000665:	e8 5e 3e 00 00       	call   c00044c8 <_ZN2Ec12transfer_fpuEPS_>
c000066a:	e9 76 ff ff ff       	jmp    c00005e5 <_ZN2Ec9sys_replyEv+0x137>
c000066f:	90                   	nop

c0000670 <_ZN2Ec8sys_callEv>:

    die ("IPC Timeout");
}

void Ec::sys_call()
{
c0000670:	55                   	push   %ebp
c0000671:	57                   	push   %edi
c0000672:	56                   	push   %esi
    Sys_call *s = static_cast<Sys_call *>(current->sys_regs());
c0000673:	8b 35 08 f0 ff cf    	mov    0xcffff008,%esi

    die ("IPC Timeout");
}

void Ec::sys_call()
{
c0000679:	53                   	push   %ebx
c000067a:	8b 7e 70             	mov    0x70(%esi),%edi
            DISABLE_DONATION    = 1ul << 1,
            DISABLE_REPLYCAP    = 1ul << 2
        };

        ALWAYS_INLINE
        inline unsigned long pt() const { return ARG_1 >> 8; }
c000067d:	89 f8                	mov    %edi,%eax
c000067f:	c1 e8 08             	shr    $0x8,%eax
        Capability() : val (0) {}

        Capability (Kobject *o, mword a) : val (a ? reinterpret_cast<mword>(o) | (a & perm) : 0) {}

        ALWAYS_INLINE
        inline Kobject *obj() const { return reinterpret_cast<Kobject *>(val & ~perm); }
c0000682:	8b 2c 85 00 00 00 e0 	mov    -0x20000000(,%eax,4),%ebp
c0000689:	83 e5 e0             	and    $0xffffffe0,%ebp
c000068c:	74 06                	je     c0000694 <_ZN2Ec8sys_callEv+0x24>
    Sys_call *s = static_cast<Sys_call *>(current->sys_regs());

    Kobject *obj = Space_obj::lookup (s->pt()).obj();
    if (EXPECT_FALSE (obj->type() != Kobject::PT)) {
c000068e:	80 7d 44 03          	cmpb   $0x3,0x44(%ebp)
c0000692:	74 05                	je     c0000699 <_ZN2Ec8sys_callEv+0x29>
//        trace (TRACE_ERROR, "%s: Bad PT CAP (%#lx)", __func__, s->pt());
        sys_finish<Sys_regs::BAD_CAP>();
c0000694:	e8 57 1a 01 00       	call   c00120f0 <_ZN2Ec10sys_finishILN8Sys_regs6StatusE4ELb0EEEvv>
    }

    Pt *pt = static_cast<Pt *>(obj);
    Ec *ec = pt->ec;

    if (Pd::current->quota.hit_limit()) {
c0000699:	a1 0c f0 ff cf       	mov    0xcffff00c,%eax
c000069e:	31 d2                	xor    %edx,%edx
{
    private:
        T * const ptr;

    public:
        operator T*() const     { return ptr; }
c00006a0:	8b 5d 4c             	mov    0x4c(%ebp),%ebx
c00006a3:	05 90 01 00 00       	add    $0x190,%eax
c00006a8:	e8 11 0e 01 00       	call   c00114be <_ZN5Quota9hit_limitEm>
c00006ad:	84 c0                	test   %al,%al
c00006af:	74 3d                	je     c00006ee <_ZN2Ec8sys_callEv+0x7e>

        if (!current->pt_oom)
c00006b1:	8b 96 f8 00 00 00    	mov    0xf8(%esi),%edx
c00006b7:	85 d2                	test   %edx,%edx
c00006b9:	75 05                	jne    c00006c0 <_ZN2Ec8sys_callEv+0x50>
            sys_finish<Sys_regs::QUO_OOM>();
c00006bb:	e8 f4 1c 01 00       	call   c00123b4 <_ZN2Ec10sys_finishILN8Sys_regs6StatusE9ELb0EEEvv>

        if (current->xcpu_sm) {
c00006c0:	83 be f4 00 00 00 00 	cmpl   $0x0,0xf4(%esi)
c00006c7:	74 11                	je     c00006da <_ZN2Ec8sys_callEv+0x6a>
        inline void set_status (Status s, bool c = true)
        {
            if (c)
                ARG_1 = s;
            else
                ARG_1 = (ARG_1 & ~0xfful) | s;
c00006c9:	81 e7 00 ff ff ff    	and    $0xffffff00,%edi
c00006cf:	83 cf 09             	or     $0x9,%edi
c00006d2:	89 7e 70             	mov    %edi,0x70(%esi)
            current->regs.set_status (Sys_regs::QUO_OOM, false);
            xcpu_return();
c00006d5:	e8 b4 39 00 00       	call   c000408e <_ZN2Ec11xcpu_returnEv>
        }

        current->oom_call_cpu (current->pt_oom, current->pt_oom->id, sys_call, sys_call);
c00006da:	8b 4a 58             	mov    0x58(%edx),%ecx
c00006dd:	89 f0                	mov    %esi,%eax
c00006df:	68 70 06 00 c0       	push   $0xc0000670
c00006e4:	68 70 06 00 c0       	push   $0xc0000670
c00006e9:	e8 a2 b1 00 00       	call   c000b890 <_ZN2Ec12oom_call_cpuEP2PtmPFvvES3_>
        sys_finish<Sys_regs::QUO_OOM>();
    }

    if (EXPECT_FALSE (current->cpu != ec->xcpu))
c00006ee:	0f b7 86 cc 00 00 00 	movzwl 0xcc(%esi),%eax
c00006f5:	3b 83 cc 00 00 00    	cmp    0xcc(%ebx),%eax
c00006fb:	74 05                	je     c0000702 <_ZN2Ec8sys_callEv+0x92>
        Ec::sys_xcpu_call();
c00006fd:	e8 0a 31 01 00       	call   c001380c <_ZN2Ec13sys_xcpu_callEv>

    if (EXPECT_TRUE (!ec->cont)) {
c0000702:	83 7b 50 00          	cmpl   $0x0,0x50(%ebx)
c0000706:	0f 85 b0 01 00 00    	jne    c00008bc <_ZN2Ec8sys_callEv+0x24c>
        current->cont = current->xcpu_sm ? xcpu_return : ret_user_sysexit;
c000070c:	83 be f4 00 00 00 00 	cmpl   $0x0,0xf4(%esi)
c0000713:	ba 00 00 00 c0       	mov    $0xc0000000,%edx
c0000718:	b8 8e 40 00 c0       	mov    $0xc000408e,%eax
        inline Exc_regs *exc_regs() { return &regs; }

        ALWAYS_INLINE
        inline void set_partner (Ec *p)
        {
            partner = p;
c000071d:	89 9e bc 00 00 00    	mov    %ebx,0xbc(%esi)
c0000723:	0f 44 c2             	cmove  %edx,%eax
c0000726:	89 46 50             	mov    %eax,0x50(%esi)
        inline Refex() : ref (1) {}

        ALWAYS_INLINE
        inline bool add_ref()
        {
            for (uint32 r; (r = ref), (r != ex); )
c0000729:	8b 43 48             	mov    0x48(%ebx),%eax
c000072c:	85 c0                	test   %eax,%eax
c000072e:	74 0a                	je     c000073a <_ZN2Ec8sys_callEv+0xca>
                if (Atomic::cmp_swap (ref, r, r + 1))
c0000730:	8d 50 01             	lea    0x1(%eax),%edx
c0000733:	f0 0f b1 53 48       	lock cmpxchg %edx,0x48(%ebx)
c0000738:	75 ef                	jne    c0000729 <_ZN2Ec8sys_callEv+0xb9>
            partner->add_ref();
            partner->rcap = this;
c000073a:	8b 86 bc 00 00 00    	mov    0xbc(%esi),%eax
c0000740:	89 b0 b0 00 00 00    	mov    %esi,0xb0(%eax)
            partner->rcap->add_ref();
c0000746:	8b 86 bc 00 00 00    	mov    0xbc(%esi),%eax
c000074c:	8b 90 b0 00 00 00    	mov    0xb0(%eax),%edx
        inline Refex() : ref (1) {}

        ALWAYS_INLINE
        inline bool add_ref()
        {
            for (uint32 r; (r = ref), (r != ex); )
c0000752:	8b 42 48             	mov    0x48(%edx),%eax
c0000755:	85 c0                	test   %eax,%eax
c0000757:	74 0a                	je     c0000763 <_ZN2Ec8sys_callEv+0xf3>
                if (Atomic::cmp_swap (ref, r, r + 1))
c0000759:	8d 48 01             	lea    0x1(%eax),%ecx
c000075c:	f0 0f b1 4a 48       	lock cmpxchg %ecx,0x48(%edx)
c0000761:	75 ef                	jne    c0000752 <_ZN2Ec8sys_callEv+0xe2>
        current->set_partner (ec);
        ec->cont = recv_user;
c0000763:	c7 43 50 56 04 00 c0 	movl   $0xc0000456,0x50(%ebx)
        ALWAYS_INLINE
        static inline T add (T &ptr, T v) { return __sync_add_and_fetch (&ptr, v); }

        template <typename T>
        ALWAYS_INLINE
        static inline T sub (T &ptr, T v) { return __sync_sub_and_fetch (&ptr, v); }
c000076a:	83 ca ff             	or     $0xffffffff,%edx
        ec->regs.set_pt (pt->id);
c000076d:	8b 45 58             	mov    0x58(%ebp),%eax
            Sc::ctr_link++;
